	.text
	.file	"2d4b9ozs2xo3xjkn"
	.section	".text._ZN105_$LT$std..ffi..os_str..OsStr$u20$as$u20$std..sys_common..AsInner$LT$std..sys..unix..os_str..Slice$GT$$GT$8as_inner17h894a5ececc59f26bE","ax",@progbits
	.p2align	4, 0x90
	.type	_ZN105_$LT$std..ffi..os_str..OsStr$u20$as$u20$std..sys_common..AsInner$LT$std..sys..unix..os_str..Slice$GT$$GT$8as_inner17h894a5ececc59f26bE,@function
_ZN105_$LT$std..ffi..os_str..OsStr$u20$as$u20$std..sys_common..AsInner$LT$std..sys..unix..os_str..Slice$GT$$GT$8as_inner17h894a5ececc59f26bE:
.Lfunc_begin0:
	.file	1 "/builddir/build/BUILD/rustc-1.62.1-src/library/std/src/ffi/os_str.rs"
	.loc	1 1294 0
	.cfi_startproc
	subq	$16, %rsp
	.cfi_def_cfa_offset 24
	movq	%rsi, %rdx
	movq	%rdi, %rax
	movq	%rax, (%rsp)
	movq	%rdx, 8(%rsp)
.Ltmp0:
	.loc	1 1296 6 prologue_end
	addq	$16, %rsp
	.cfi_def_cfa_offset 8
	retq
.Ltmp1:
.Lfunc_end0:
	.size	_ZN105_$LT$std..ffi..os_str..OsStr$u20$as$u20$std..sys_common..AsInner$LT$std..sys..unix..os_str..Slice$GT$$GT$8as_inner17h894a5ececc59f26bE, .Lfunc_end0-_ZN105_$LT$std..ffi..os_str..OsStr$u20$as$u20$std..sys_common..AsInner$LT$std..sys..unix..os_str..Slice$GT$$GT$8as_inner17h894a5ececc59f26bE
	.cfi_endproc

	.section	".text._ZN119_$LT$core..ptr..non_null..NonNull$LT$T$GT$$u20$as$u20$core..convert..From$LT$core..ptr..unique..Unique$LT$T$GT$$GT$$GT$4from17h1ca6195793ac1f0cE","ax",@progbits
	.p2align	4, 0x90
	.type	_ZN119_$LT$core..ptr..non_null..NonNull$LT$T$GT$$u20$as$u20$core..convert..From$LT$core..ptr..unique..Unique$LT$T$GT$$GT$$GT$4from17h1ca6195793ac1f0cE,@function
_ZN119_$LT$core..ptr..non_null..NonNull$LT$T$GT$$u20$as$u20$core..convert..From$LT$core..ptr..unique..Unique$LT$T$GT$$GT$$GT$4from17h1ca6195793ac1f0cE:
.Lfunc_begin1:
	.file	2 "/builddir/build/BUILD/rustc-1.62.1-src/library/core/src/ptr/non_null.rs"
	.loc	2 769 0
	.cfi_startproc
	subq	$24, %rsp
	.cfi_def_cfa_offset 32
	movq	%rdi, 16(%rsp)
.Ltmp2:
	.loc	2 772 41 prologue_end
	callq	_ZN4core3ptr6unique15Unique$LT$T$GT$6as_ptr17h7ef1e6fec22aa4d5E
	movq	%rax, 8(%rsp)
	.loc	2 0 41 is_stmt 0
	movq	8(%rsp), %rdi
	.loc	2 772 18
	callq	_ZN4core3ptr8non_null16NonNull$LT$T$GT$13new_unchecked17h5f15a3ad47ed5c56E
	movq	%rax, (%rsp)
	.loc	2 0 18
	movq	(%rsp), %rax
	.loc	2 773 6 is_stmt 1
	addq	$24, %rsp
	.cfi_def_cfa_offset 8
	retq
.Ltmp3:
.Lfunc_end1:
	.size	_ZN119_$LT$core..ptr..non_null..NonNull$LT$T$GT$$u20$as$u20$core..convert..From$LT$core..ptr..unique..Unique$LT$T$GT$$GT$$GT$4from17h1ca6195793ac1f0cE, .Lfunc_end1-_ZN119_$LT$core..ptr..non_null..NonNull$LT$T$GT$$u20$as$u20$core..convert..From$LT$core..ptr..unique..Unique$LT$T$GT$$GT$$GT$4from17h1ca6195793ac1f0cE
	.cfi_endproc

	.section	".text._ZN119_$LT$core..ptr..unique..Unique$LT$T$GT$$u20$as$u20$core..convert..From$LT$core..ptr..non_null..NonNull$LT$T$GT$$GT$$GT$4from17h07563fc18098f0b8E","ax",@progbits
	.p2align	4, 0x90
	.type	_ZN119_$LT$core..ptr..unique..Unique$LT$T$GT$$u20$as$u20$core..convert..From$LT$core..ptr..non_null..NonNull$LT$T$GT$$GT$$GT$4from17h07563fc18098f0b8E,@function
_ZN119_$LT$core..ptr..unique..Unique$LT$T$GT$$u20$as$u20$core..convert..From$LT$core..ptr..non_null..NonNull$LT$T$GT$$GT$$GT$4from17h07563fc18098f0b8E:
.Lfunc_begin2:
	.file	3 "/builddir/build/BUILD/rustc-1.62.1-src/library/core/src/ptr/unique.rs"
	.loc	3 190 0
	.cfi_startproc
	subq	$32, %rsp
	.cfi_def_cfa_offset 40
	movq	%rdi, 16(%rsp)
	movq	%rsi, 24(%rsp)
.Ltmp4:
	.loc	3 191 9 prologue_end
	movq	%rdi, (%rsp)
	movq	%rsi, 8(%rsp)
	.loc	3 192 6
	movq	(%rsp), %rax
	movq	8(%rsp), %rdx
	addq	$32, %rsp
	.cfi_def_cfa_offset 8
	retq
.Ltmp5:
.Lfunc_end2:
	.size	_ZN119_$LT$core..ptr..unique..Unique$LT$T$GT$$u20$as$u20$core..convert..From$LT$core..ptr..non_null..NonNull$LT$T$GT$$GT$$GT$4from17h07563fc18098f0b8E, .Lfunc_end2-_ZN119_$LT$core..ptr..unique..Unique$LT$T$GT$$u20$as$u20$core..convert..From$LT$core..ptr..non_null..NonNull$LT$T$GT$$GT$$GT$4from17h07563fc18098f0b8E
	.cfi_endproc

	.section	".text._ZN119_$LT$core..ptr..unique..Unique$LT$T$GT$$u20$as$u20$core..convert..From$LT$core..ptr..non_null..NonNull$LT$T$GT$$GT$$GT$4from17h13f85e051658e29fE","ax",@progbits
	.p2align	4, 0x90
	.type	_ZN119_$LT$core..ptr..unique..Unique$LT$T$GT$$u20$as$u20$core..convert..From$LT$core..ptr..non_null..NonNull$LT$T$GT$$GT$$GT$4from17h13f85e051658e29fE,@function
_ZN119_$LT$core..ptr..unique..Unique$LT$T$GT$$u20$as$u20$core..convert..From$LT$core..ptr..non_null..NonNull$LT$T$GT$$GT$$GT$4from17h13f85e051658e29fE:
.Lfunc_begin3:
	.loc	3 190 0
	.cfi_startproc
	subq	$16, %rsp
	.cfi_def_cfa_offset 24
	movq	%rdi, 8(%rsp)
.Ltmp6:
	.loc	3 191 9 prologue_end
	movq	%rdi, (%rsp)
	.loc	3 192 6
	movq	(%rsp), %rax
	addq	$16, %rsp
	.cfi_def_cfa_offset 8
	retq
.Ltmp7:
.Lfunc_end3:
	.size	_ZN119_$LT$core..ptr..unique..Unique$LT$T$GT$$u20$as$u20$core..convert..From$LT$core..ptr..non_null..NonNull$LT$T$GT$$GT$$GT$4from17h13f85e051658e29fE, .Lfunc_end3-_ZN119_$LT$core..ptr..unique..Unique$LT$T$GT$$u20$as$u20$core..convert..From$LT$core..ptr..non_null..NonNull$LT$T$GT$$GT$$GT$4from17h13f85e051658e29fE
	.cfi_endproc

	.section	".text._ZN122_$LT$alloc..collections..TryReserveError$u20$as$u20$core..convert..From$LT$alloc..collections..TryReserveErrorKind$GT$$GT$4from17hf2dcbfd2e9990559E","ax",@progbits
	.p2align	4, 0x90
	.type	_ZN122_$LT$alloc..collections..TryReserveError$u20$as$u20$core..convert..From$LT$alloc..collections..TryReserveErrorKind$GT$$GT$4from17hf2dcbfd2e9990559E,@function
_ZN122_$LT$alloc..collections..TryReserveError$u20$as$u20$core..convert..From$LT$alloc..collections..TryReserveErrorKind$GT$$GT$4from17hf2dcbfd2e9990559E:
.Lfunc_begin4:
	.file	4 "/builddir/build/BUILD/rustc-1.62.1-src/library/alloc/src/collections/mod.rs"
	.loc	4 116 0
	.cfi_startproc
	subq	$32, %rsp
	.cfi_def_cfa_offset 40
	movq	%rdi, 16(%rsp)
	movq	%rsi, 24(%rsp)
.Ltmp8:
	.loc	4 117 9 prologue_end
	movq	%rdi, (%rsp)
	movq	%rsi, 8(%rsp)
	.loc	4 118 6
	movq	(%rsp), %rax
	movq	8(%rsp), %rdx
	addq	$32, %rsp
	.cfi_def_cfa_offset 8
	retq
.Ltmp9:
.Lfunc_end4:
	.size	_ZN122_$LT$alloc..collections..TryReserveError$u20$as$u20$core..convert..From$LT$alloc..collections..TryReserveErrorKind$GT$$GT$4from17hf2dcbfd2e9990559E, .Lfunc_end4-_ZN122_$LT$alloc..collections..TryReserveError$u20$as$u20$core..convert..From$LT$alloc..collections..TryReserveErrorKind$GT$$GT$4from17hf2dcbfd2e9990559E
	.cfi_endproc

	.section	".text._ZN132_$LT$alloc..vec..Vec$LT$T$C$A$GT$$u20$as$u20$alloc..vec..spec_extend..SpecExtend$LT$$RF$T$C$core..slice..iter..Iter$LT$T$GT$$GT$$GT$11spec_extend17h746fdf1353795dc3E","ax",@progbits
	.p2align	4, 0x90
	.type	_ZN132_$LT$alloc..vec..Vec$LT$T$C$A$GT$$u20$as$u20$alloc..vec..spec_extend..SpecExtend$LT$$RF$T$C$core..slice..iter..Iter$LT$T$GT$$GT$$GT$11spec_extend17h746fdf1353795dc3E,@function
_ZN132_$LT$alloc..vec..Vec$LT$T$C$A$GT$$u20$as$u20$alloc..vec..spec_extend..SpecExtend$LT$$RF$T$C$core..slice..iter..Iter$LT$T$GT$$GT$$GT$11spec_extend17h746fdf1353795dc3E:
.Lfunc_begin5:
	.file	5 "/builddir/build/BUILD/rustc-1.62.1-src/library/alloc/src/vec/spec_extend.rs"
	.loc	5 83 0
	.cfi_startproc
	subq	$72, %rsp
	.cfi_def_cfa_offset 80
	movq	%rdi, 8(%rsp)
	movq	%rsi, 32(%rsp)
	movq	%rdx, 40(%rsp)
	movq	%rdi, 48(%rsp)
.Ltmp10:
	.loc	5 84 21 prologue_end
	leaq	32(%rsp), %rdi
	callq	_ZN4core5slice4iter13Iter$LT$T$GT$8as_slice17h2d144c5f8388d237E
	movq	%rax, 16(%rsp)
	movq	%rdx, 24(%rsp)
	movq	%rax, 56(%rsp)
	movq	%rdx, 64(%rsp)
	.loc	5 0 21 is_stmt 0
	movq	24(%rsp), %rdx
	movq	16(%rsp), %rsi
	movq	8(%rsp), %rdi
.Ltmp11:
	.loc	5 85 18 is_stmt 1
	callq	_ZN5alloc3vec16Vec$LT$T$C$A$GT$15append_elements17h2ab13abafe94b692E
.Ltmp12:
	.loc	5 86 6
	addq	$72, %rsp
	.cfi_def_cfa_offset 8
	retq
.Ltmp13:
.Lfunc_end5:
	.size	_ZN132_$LT$alloc..vec..Vec$LT$T$C$A$GT$$u20$as$u20$alloc..vec..spec_extend..SpecExtend$LT$$RF$T$C$core..slice..iter..Iter$LT$T$GT$$GT$$GT$11spec_extend17h746fdf1353795dc3E, .Lfunc_end5-_ZN132_$LT$alloc..vec..Vec$LT$T$C$A$GT$$u20$as$u20$alloc..vec..spec_extend..SpecExtend$LT$$RF$T$C$core..slice..iter..Iter$LT$T$GT$$GT$$GT$11spec_extend17h746fdf1353795dc3E
	.cfi_endproc

	.section	".text._ZN153_$LT$core..result..Result$LT$T$C$F$GT$$u20$as$u20$core..ops..try_trait..FromResidual$LT$core..result..Result$LT$core..convert..Infallible$C$E$GT$$GT$$GT$13from_residual17h2870e7cb317aaa59E","ax",@progbits
	.p2align	4, 0x90
	.type	_ZN153_$LT$core..result..Result$LT$T$C$F$GT$$u20$as$u20$core..ops..try_trait..FromResidual$LT$core..result..Result$LT$core..convert..Infallible$C$E$GT$$GT$$GT$13from_residual17h2870e7cb317aaa59E,@function
_ZN153_$LT$core..result..Result$LT$T$C$F$GT$$u20$as$u20$core..ops..try_trait..FromResidual$LT$core..result..Result$LT$core..convert..Infallible$C$E$GT$$GT$$GT$13from_residual17h2870e7cb317aaa59E:
.Lfunc_begin6:
	.file	6 "/builddir/build/BUILD/rustc-1.62.1-src/library/core/src/result.rs"
	.loc	6 2103 0
	.cfi_startproc
	subq	$72, %rsp
	.cfi_def_cfa_offset 80
	movq	%rdi, 24(%rsp)
	movq	%rsi, 32(%rsp)
.Ltmp14:
	.loc	6 2105 17 prologue_end
	movq	24(%rsp), %rdi
	movq	32(%rsp), %rsi
	movq	%rdi, 56(%rsp)
	movq	%rsi, 64(%rsp)
.Ltmp15:
	.loc	6 2105 27 is_stmt 0
	callq	_ZN122_$LT$alloc..collections..TryReserveError$u20$as$u20$core..convert..From$LT$alloc..collections..TryReserveErrorKind$GT$$GT$4from17hf2dcbfd2e9990559E
	movq	%rax, 8(%rsp)
	movq	%rdx, 16(%rsp)
	.loc	6 0 27
	movq	16(%rsp), %rax
	movq	8(%rsp), %rcx
	.loc	6 2105 23
	movq	%rcx, 40(%rsp)
	movq	%rax, 48(%rsp)
.Ltmp16:
	.loc	6 2107 6 is_stmt 1
	movq	40(%rsp), %rax
	movq	48(%rsp), %rdx
	addq	$72, %rsp
	.cfi_def_cfa_offset 8
	retq
.Ltmp17:
.Lfunc_end6:
	.size	_ZN153_$LT$core..result..Result$LT$T$C$F$GT$$u20$as$u20$core..ops..try_trait..FromResidual$LT$core..result..Result$LT$core..convert..Infallible$C$E$GT$$GT$$GT$13from_residual17h2870e7cb317aaa59E, .Lfunc_end6-_ZN153_$LT$core..result..Result$LT$T$C$F$GT$$u20$as$u20$core..ops..try_trait..FromResidual$LT$core..result..Result$LT$core..convert..Infallible$C$E$GT$$GT$$GT$13from_residual17h2870e7cb317aaa59E
	.cfi_endproc

	.section	".text._ZN153_$LT$core..result..Result$LT$T$C$F$GT$$u20$as$u20$core..ops..try_trait..FromResidual$LT$core..result..Result$LT$core..convert..Infallible$C$E$GT$$GT$$GT$13from_residual17h4e89803298d69aa2E","ax",@progbits
	.p2align	4, 0x90
	.type	_ZN153_$LT$core..result..Result$LT$T$C$F$GT$$u20$as$u20$core..ops..try_trait..FromResidual$LT$core..result..Result$LT$core..convert..Infallible$C$E$GT$$GT$$GT$13from_residual17h4e89803298d69aa2E,@function
_ZN153_$LT$core..result..Result$LT$T$C$F$GT$$u20$as$u20$core..ops..try_trait..FromResidual$LT$core..result..Result$LT$core..convert..Infallible$C$E$GT$$GT$$GT$13from_residual17h4e89803298d69aa2E:
.Lfunc_begin7:
	.loc	6 2103 0
	.cfi_startproc
	subq	$72, %rsp
	.cfi_def_cfa_offset 80
	movq	%rdi, 24(%rsp)
	movq	%rsi, 32(%rsp)
.Ltmp18:
	.loc	6 2105 17 prologue_end
	movq	24(%rsp), %rdi
	movq	32(%rsp), %rsi
	movq	%rdi, 56(%rsp)
	movq	%rsi, 64(%rsp)
.Ltmp19:
	.loc	6 2105 27 is_stmt 0
	callq	_ZN50_$LT$T$u20$as$u20$core..convert..From$LT$T$GT$$GT$4from17h9aab347ec666887fE
	movq	%rax, 8(%rsp)
	movq	%rdx, 16(%rsp)
	.loc	6 0 27
	movq	16(%rsp), %rax
	movq	8(%rsp), %rcx
	.loc	6 2105 23
	movq	%rcx, 40(%rsp)
	movq	%rax, 48(%rsp)
.Ltmp20:
	.loc	6 2107 6 is_stmt 1
	movq	40(%rsp), %rax
	movq	48(%rsp), %rdx
	addq	$72, %rsp
	.cfi_def_cfa_offset 8
	retq
.Ltmp21:
.Lfunc_end7:
	.size	_ZN153_$LT$core..result..Result$LT$T$C$F$GT$$u20$as$u20$core..ops..try_trait..FromResidual$LT$core..result..Result$LT$core..convert..Infallible$C$E$GT$$GT$$GT$13from_residual17h4e89803298d69aa2E, .Lfunc_end7-_ZN153_$LT$core..result..Result$LT$T$C$F$GT$$u20$as$u20$core..ops..try_trait..FromResidual$LT$core..result..Result$LT$core..convert..Infallible$C$E$GT$$GT$$GT$13from_residual17h4e89803298d69aa2E
	.cfi_endproc

	.section	".text._ZN153_$LT$core..result..Result$LT$T$C$F$GT$$u20$as$u20$core..ops..try_trait..FromResidual$LT$core..result..Result$LT$core..convert..Infallible$C$E$GT$$GT$$GT$13from_residual17h61c0764d4a0a03d8E","ax",@progbits
	.p2align	4, 0x90
	.type	_ZN153_$LT$core..result..Result$LT$T$C$F$GT$$u20$as$u20$core..ops..try_trait..FromResidual$LT$core..result..Result$LT$core..convert..Infallible$C$E$GT$$GT$$GT$13from_residual17h61c0764d4a0a03d8E,@function
_ZN153_$LT$core..result..Result$LT$T$C$F$GT$$u20$as$u20$core..ops..try_trait..FromResidual$LT$core..result..Result$LT$core..convert..Infallible$C$E$GT$$GT$$GT$13from_residual17h61c0764d4a0a03d8E:
.Lfunc_begin8:
	.loc	6 2103 0
	.cfi_startproc
	subq	$40, %rsp
	.cfi_def_cfa_offset 48
.Ltmp22:
	.loc	6 2105 27 prologue_end
	callq	_ZN50_$LT$T$u20$as$u20$core..convert..From$LT$T$GT$$GT$4from17h22aa42c111bf8ec1E
	.loc	6 2105 23 is_stmt 0
	movq	$0, 16(%rsp)
.Ltmp23:
	.loc	6 2107 6 is_stmt 1
	movq	8(%rsp), %rax
	movq	16(%rsp), %rdx
	addq	$40, %rsp
	.cfi_def_cfa_offset 8
	retq
.Ltmp24:
.Lfunc_end8:
	.size	_ZN153_$LT$core..result..Result$LT$T$C$F$GT$$u20$as$u20$core..ops..try_trait..FromResidual$LT$core..result..Result$LT$core..convert..Infallible$C$E$GT$$GT$$GT$13from_residual17h61c0764d4a0a03d8E, .Lfunc_end8-_ZN153_$LT$core..result..Result$LT$T$C$F$GT$$u20$as$u20$core..ops..try_trait..FromResidual$LT$core..result..Result$LT$core..convert..Infallible$C$E$GT$$GT$$GT$13from_residual17h61c0764d4a0a03d8E
	.cfi_endproc

	.section	".text._ZN153_$LT$core..result..Result$LT$T$C$F$GT$$u20$as$u20$core..ops..try_trait..FromResidual$LT$core..result..Result$LT$core..convert..Infallible$C$E$GT$$GT$$GT$13from_residual17hb1a370cd8ae91d47E","ax",@progbits
	.p2align	4, 0x90
	.type	_ZN153_$LT$core..result..Result$LT$T$C$F$GT$$u20$as$u20$core..ops..try_trait..FromResidual$LT$core..result..Result$LT$core..convert..Infallible$C$E$GT$$GT$$GT$13from_residual17hb1a370cd8ae91d47E,@function
_ZN153_$LT$core..result..Result$LT$T$C$F$GT$$u20$as$u20$core..ops..try_trait..FromResidual$LT$core..result..Result$LT$core..convert..Infallible$C$E$GT$$GT$$GT$13from_residual17hb1a370cd8ae91d47E:
.Lfunc_begin9:
	.loc	6 2103 0
	.cfi_startproc
	subq	$40, %rsp
	.cfi_def_cfa_offset 48
.Ltmp25:
	.loc	6 2105 27 prologue_end
	callq	_ZN50_$LT$T$u20$as$u20$core..convert..From$LT$T$GT$$GT$4from17h4a5443f0a81aec6cE
	.loc	6 2105 23 is_stmt 0
	movq	$0, 8(%rsp)
.Ltmp26:
	.loc	6 2107 6 is_stmt 1
	movq	8(%rsp), %rax
	movq	16(%rsp), %rdx
	addq	$40, %rsp
	.cfi_def_cfa_offset 8
	retq
.Ltmp27:
.Lfunc_end9:
	.size	_ZN153_$LT$core..result..Result$LT$T$C$F$GT$$u20$as$u20$core..ops..try_trait..FromResidual$LT$core..result..Result$LT$core..convert..Infallible$C$E$GT$$GT$$GT$13from_residual17hb1a370cd8ae91d47E, .Lfunc_end9-_ZN153_$LT$core..result..Result$LT$T$C$F$GT$$u20$as$u20$core..ops..try_trait..FromResidual$LT$core..result..Result$LT$core..convert..Infallible$C$E$GT$$GT$$GT$13from_residual17hb1a370cd8ae91d47E
	.cfi_endproc

	.section	".text._ZN153_$LT$core..result..Result$LT$T$C$F$GT$$u20$as$u20$core..ops..try_trait..FromResidual$LT$core..result..Result$LT$core..convert..Infallible$C$E$GT$$GT$$GT$13from_residual17hc347e9b855d33a63E","ax",@progbits
	.p2align	4, 0x90
	.type	_ZN153_$LT$core..result..Result$LT$T$C$F$GT$$u20$as$u20$core..ops..try_trait..FromResidual$LT$core..result..Result$LT$core..convert..Infallible$C$E$GT$$GT$$GT$13from_residual17hc347e9b855d33a63E,@function
_ZN153_$LT$core..result..Result$LT$T$C$F$GT$$u20$as$u20$core..ops..try_trait..FromResidual$LT$core..result..Result$LT$core..convert..Infallible$C$E$GT$$GT$$GT$13from_residual17hc347e9b855d33a63E:
.Lfunc_begin10:
	.loc	6 2103 0
	.cfi_startproc
	subq	$72, %rsp
	.cfi_def_cfa_offset 80
	movq	%rdi, 8(%rsp)
	movq	%rdi, 16(%rsp)
	movq	%rsi, 40(%rsp)
	movq	%rdx, 48(%rsp)
.Ltmp28:
	.loc	6 2105 17 prologue_end
	movq	40(%rsp), %rdi
	movq	48(%rsp), %rsi
	movq	%rdi, 56(%rsp)
	movq	%rsi, 64(%rsp)
.Ltmp29:
	.loc	6 2105 27 is_stmt 0
	callq	_ZN50_$LT$T$u20$as$u20$core..convert..From$LT$T$GT$$GT$4from17h9aab347ec666887fE
	movq	%rax, 24(%rsp)
	movq	%rdx, 32(%rsp)
	.loc	6 0 27
	movq	16(%rsp), %rax
	movq	8(%rsp), %rcx
	movq	32(%rsp), %rdx
	movq	24(%rsp), %rsi
	.loc	6 2105 23
	movq	%rsi, 8(%rcx)
	movq	%rdx, 16(%rcx)
	movq	$1, (%rcx)
.Ltmp30:
	.loc	6 2107 6 is_stmt 1
	addq	$72, %rsp
	.cfi_def_cfa_offset 8
	retq
.Ltmp31:
.Lfunc_end10:
	.size	_ZN153_$LT$core..result..Result$LT$T$C$F$GT$$u20$as$u20$core..ops..try_trait..FromResidual$LT$core..result..Result$LT$core..convert..Infallible$C$E$GT$$GT$$GT$13from_residual17hc347e9b855d33a63E, .Lfunc_end10-_ZN153_$LT$core..result..Result$LT$T$C$F$GT$$u20$as$u20$core..ops..try_trait..FromResidual$LT$core..result..Result$LT$core..convert..Infallible$C$E$GT$$GT$$GT$13from_residual17hc347e9b855d33a63E
	.cfi_endproc

	.section	".text._ZN153_$LT$core..result..Result$LT$T$C$F$GT$$u20$as$u20$core..ops..try_trait..FromResidual$LT$core..result..Result$LT$core..convert..Infallible$C$E$GT$$GT$$GT$13from_residual17hcec3344afc053af9E","ax",@progbits
	.p2align	4, 0x90
	.type	_ZN153_$LT$core..result..Result$LT$T$C$F$GT$$u20$as$u20$core..ops..try_trait..FromResidual$LT$core..result..Result$LT$core..convert..Infallible$C$E$GT$$GT$$GT$13from_residual17hcec3344afc053af9E,@function
_ZN153_$LT$core..result..Result$LT$T$C$F$GT$$u20$as$u20$core..ops..try_trait..FromResidual$LT$core..result..Result$LT$core..convert..Infallible$C$E$GT$$GT$$GT$13from_residual17hcec3344afc053af9E:
.Lfunc_begin11:
	.loc	6 2103 0
	.cfi_startproc
	subq	$72, %rsp
	.cfi_def_cfa_offset 80
	movq	%rdi, 8(%rsp)
	movq	%rdi, 16(%rsp)
	movq	%rsi, 40(%rsp)
	movq	%rdx, 48(%rsp)
.Ltmp32:
	.loc	6 2105 17 prologue_end
	movq	40(%rsp), %rdi
	movq	48(%rsp), %rsi
	movq	%rdi, 56(%rsp)
	movq	%rsi, 64(%rsp)
.Ltmp33:
	.loc	6 2105 27 is_stmt 0
	callq	_ZN122_$LT$alloc..collections..TryReserveError$u20$as$u20$core..convert..From$LT$alloc..collections..TryReserveErrorKind$GT$$GT$4from17hf2dcbfd2e9990559E
	movq	%rax, 24(%rsp)
	movq	%rdx, 32(%rsp)
	.loc	6 0 27
	movq	16(%rsp), %rax
	movq	8(%rsp), %rcx
	movq	32(%rsp), %rdx
	movq	24(%rsp), %rsi
	.loc	6 2105 23
	movq	%rsi, 8(%rcx)
	movq	%rdx, 16(%rcx)
	movq	$1, (%rcx)
.Ltmp34:
	.loc	6 2107 6 is_stmt 1
	addq	$72, %rsp
	.cfi_def_cfa_offset 8
	retq
.Ltmp35:
.Lfunc_end11:
	.size	_ZN153_$LT$core..result..Result$LT$T$C$F$GT$$u20$as$u20$core..ops..try_trait..FromResidual$LT$core..result..Result$LT$core..convert..Infallible$C$E$GT$$GT$$GT$13from_residual17hcec3344afc053af9E, .Lfunc_end11-_ZN153_$LT$core..result..Result$LT$T$C$F$GT$$u20$as$u20$core..ops..try_trait..FromResidual$LT$core..result..Result$LT$core..convert..Infallible$C$E$GT$$GT$$GT$13from_residual17hcec3344afc053af9E
	.cfi_endproc

	.section	.text._ZN3std10sys_common9backtrace28__rust_begin_short_backtrace17h40353b0b0afcc77bE,"ax",@progbits
	.p2align	4, 0x90
	.type	_ZN3std10sys_common9backtrace28__rust_begin_short_backtrace17h40353b0b0afcc77bE,@function
_ZN3std10sys_common9backtrace28__rust_begin_short_backtrace17h40353b0b0afcc77bE:
.Lfunc_begin12:
	.file	7 "/builddir/build/BUILD/rustc-1.62.1-src/library/std/src/sys_common/backtrace.rs"
	.loc	7 118 0
	.cfi_startproc
	.cfi_personality 155, DW.ref.rust_eh_personality
	.cfi_lsda 27, .Lexception0
	subq	$40, %rsp
	.cfi_def_cfa_offset 48
	movq	%rdi, 16(%rsp)
.Ltmp39:
	.loc	7 122 18 prologue_end
	callq	_ZN4core3ops8function6FnOnce9call_once17hb2a235827daa4a0fE
.Ltmp36:
.Ltmp40:
	.loc	7 125 5
	callq	_ZN4core4hint9black_box17h8a23f24134229404E
.Ltmp37:
	jmp	.LBB12_4
.Ltmp41:
.LBB12_2:
	.loc	7 128 1
	jmp	.LBB12_5
.LBB12_3:
.Ltmp38:
	.loc	7 0 1 is_stmt 0
	movq	%rax, %rcx
	movl	%edx, %eax
	movq	%rcx, 24(%rsp)
	movl	%eax, 32(%rsp)
	jmp	.LBB12_2
.LBB12_4:
	.loc	7 128 2
	addq	$40, %rsp
	.cfi_def_cfa_offset 8
	retq
.LBB12_5:
	.cfi_def_cfa_offset 48
	.loc	7 118 1 is_stmt 1
	movq	24(%rsp), %rdi
	callq	_Unwind_Resume@PLT
	ud2
.Ltmp42:
.Lfunc_end12:
	.size	_ZN3std10sys_common9backtrace28__rust_begin_short_backtrace17h40353b0b0afcc77bE, .Lfunc_end12-_ZN3std10sys_common9backtrace28__rust_begin_short_backtrace17h40353b0b0afcc77bE
	.cfi_endproc
	.section	.gcc_except_table._ZN3std10sys_common9backtrace28__rust_begin_short_backtrace17h40353b0b0afcc77bE,"a",@progbits
	.p2align	2
GCC_except_table12:
.Lexception0:
	.byte	255
	.byte	255
	.byte	1
	.uleb128 .Lcst_end0-.Lcst_begin0
.Lcst_begin0:
	.uleb128 .Lfunc_begin12-.Lfunc_begin12
	.uleb128 .Ltmp36-.Lfunc_begin12
	.byte	0
	.byte	0
	.uleb128 .Ltmp36-.Lfunc_begin12
	.uleb128 .Ltmp37-.Ltmp36
	.uleb128 .Ltmp38-.Lfunc_begin12
	.byte	0
	.uleb128 .Ltmp37-.Lfunc_begin12
	.uleb128 .Lfunc_end12-.Ltmp37
	.byte	0
	.byte	0
.Lcst_end0:
	.p2align	2

	.section	.text._ZN3std2rt10lang_start17h963ca65dcbc292b8E,"ax",@progbits
	.hidden	_ZN3std2rt10lang_start17h963ca65dcbc292b8E
	.globl	_ZN3std2rt10lang_start17h963ca65dcbc292b8E
	.p2align	4, 0x90
	.type	_ZN3std2rt10lang_start17h963ca65dcbc292b8E,@function
_ZN3std2rt10lang_start17h963ca65dcbc292b8E:
.Lfunc_begin13:
	.file	8 "/builddir/build/BUILD/rustc-1.62.1-src/library/std/src/rt.rs"
	.loc	8 139 0
	.cfi_startproc
	subq	$56, %rsp
	.cfi_def_cfa_offset 64
	movq	%rdx, %rcx
	movq	%rsi, %rdx
	movq	%rdi, 24(%rsp)
	movq	%rdx, 32(%rsp)
	movq	%rcx, 40(%rsp)
.Ltmp43:
	.loc	8 145 10 prologue_end
	movq	%rdi, 16(%rsp)
	.loc	8 145 9 is_stmt 0
	leaq	16(%rsp), %rdi
	.loc	8 144 17 is_stmt 1
	leaq	.L__unnamed_1(%rip), %rsi
	callq	*_ZN3std2rt19lang_start_internal17h1367fda763b7eb75E@GOTPCREL(%rip)
	movq	%rax, 8(%rsp)
	.loc	8 144 12 is_stmt 0
	movq	8(%rsp), %rax
	movq	%rax, 48(%rsp)
	.loc	8 150 2 is_stmt 1
	addq	$56, %rsp
	.cfi_def_cfa_offset 8
	retq
.Ltmp44:
.Lfunc_end13:
	.size	_ZN3std2rt10lang_start17h963ca65dcbc292b8E, .Lfunc_end13-_ZN3std2rt10lang_start17h963ca65dcbc292b8E
	.cfi_endproc

	.section	".text._ZN3std2rt10lang_start28_$u7b$$u7b$closure$u7d$$u7d$17h8366d297496283f4E","ax",@progbits
	.p2align	4, 0x90
	.type	_ZN3std2rt10lang_start28_$u7b$$u7b$closure$u7d$$u7d$17h8366d297496283f4E,@function
_ZN3std2rt10lang_start28_$u7b$$u7b$closure$u7d$$u7d$17h8366d297496283f4E:
.Lfunc_begin14:
	.loc	8 145 0
	.cfi_startproc
	subq	$24, %rsp
	.cfi_def_cfa_offset 32
	movq	%rdi, 16(%rsp)
.Ltmp45:
	.loc	8 145 77 prologue_end
	movq	(%rdi), %rdi
	.loc	8 145 18 is_stmt 0
	callq	_ZN3std10sys_common9backtrace28__rust_begin_short_backtrace17h40353b0b0afcc77bE
	callq	_ZN54_$LT$$LP$$RP$$u20$as$u20$std..process..Termination$GT$6report17h02b669f65bd99e18E
	movb	%al, 15(%rsp)
	.loc	8 0 18
	movb	15(%rsp), %al
	.loc	8 145 18
	movzbl	%al, %edi
	callq	_ZN3std7process8ExitCode6to_i3217hfbf6c7cddc7d921eE
	movl	%eax, 8(%rsp)
	.loc	8 0 18
	movl	8(%rsp), %eax
	.loc	8 145 100
	addq	$24, %rsp
	.cfi_def_cfa_offset 8
	retq
.Ltmp46:
.Lfunc_end14:
	.size	_ZN3std2rt10lang_start28_$u7b$$u7b$closure$u7d$$u7d$17h8366d297496283f4E, .Lfunc_end14-_ZN3std2rt10lang_start28_$u7b$$u7b$closure$u7d$$u7d$17h8366d297496283f4E
	.cfi_endproc

	.section	.text._ZN3std3ffi6os_str5OsStr10from_inner17hc06b294b7cc7321fE,"ax",@progbits
	.p2align	4, 0x90
	.type	_ZN3std3ffi6os_str5OsStr10from_inner17hc06b294b7cc7321fE,@function
_ZN3std3ffi6os_str5OsStr10from_inner17hc06b294b7cc7321fE:
.Lfunc_begin15:
	.loc	1 635 0 is_stmt 1
	.cfi_startproc
	subq	$16, %rsp
	.cfi_def_cfa_offset 24
	movq	%rsi, %rdx
	movq	%rdi, %rax
	movq	%rax, (%rsp)
	movq	%rdx, 8(%rsp)
.Ltmp47:
	.loc	1 639 6 prologue_end
	addq	$16, %rsp
	.cfi_def_cfa_offset 8
	retq
.Ltmp48:
.Lfunc_end15:
	.size	_ZN3std3ffi6os_str5OsStr10from_inner17hc06b294b7cc7321fE, .Lfunc_end15-_ZN3std3ffi6os_str5OsStr10from_inner17hc06b294b7cc7321fE
	.cfi_endproc

	.section	.text._ZN3std3ffi6os_str5OsStr3len17h639ebb38d79c9e7cE,"ax",@progbits
	.p2align	4, 0x90
	.type	_ZN3std3ffi6os_str5OsStr3len17h639ebb38d79c9e7cE,@function
_ZN3std3ffi6os_str5OsStr3len17h639ebb38d79c9e7cE:
.Lfunc_begin16:
	.loc	1 790 0
	.cfi_startproc
	subq	$16, %rsp
	.cfi_def_cfa_offset 24
	movq	%rsi, %rax
	movq	%rdi, (%rsp)
	movq	%rax, 8(%rsp)
.Ltmp49:
	.loc	1 792 6 prologue_end
	addq	$16, %rsp
	.cfi_def_cfa_offset 8
	retq
.Ltmp50:
.Lfunc_end16:
	.size	_ZN3std3ffi6os_str5OsStr3len17h639ebb38d79c9e7cE, .Lfunc_end16-_ZN3std3ffi6os_str5OsStr3len17h639ebb38d79c9e7cE
	.cfi_endproc

	.section	.text._ZN3std3ffi6os_str5OsStr3new17h0bd0b5d46cfd2c27E,"ax",@progbits
	.p2align	4, 0x90
	.type	_ZN3std3ffi6os_str5OsStr3new17h0bd0b5d46cfd2c27E,@function
_ZN3std3ffi6os_str5OsStr3new17h0bd0b5d46cfd2c27E:
.Lfunc_begin17:
	.loc	1 630 0
	.cfi_startproc
	subq	$40, %rsp
	.cfi_def_cfa_offset 48
	movq	%rdi, 24(%rsp)
	movq	%rsi, 32(%rsp)
.Ltmp51:
	.loc	1 631 9 prologue_end
	callq	_ZN3std3ffi6os_str85_$LT$impl$u20$core..convert..AsRef$LT$std..ffi..os_str..OsStr$GT$$u20$for$u20$str$GT$6as_ref17h48e6c52cea1430a9E
	movq	%rax, 8(%rsp)
	movq	%rdx, 16(%rsp)
	.loc	1 0 9 is_stmt 0
	movq	16(%rsp), %rdx
	movq	8(%rsp), %rax
	.loc	1 632 6 is_stmt 1
	addq	$40, %rsp
	.cfi_def_cfa_offset 8
	retq
.Ltmp52:
.Lfunc_end17:
	.size	_ZN3std3ffi6os_str5OsStr3new17h0bd0b5d46cfd2c27E, .Lfunc_end17-_ZN3std3ffi6os_str5OsStr3new17h0bd0b5d46cfd2c27E
	.cfi_endproc

	.section	".text._ZN3std3ffi6os_str85_$LT$impl$u20$core..convert..AsRef$LT$std..ffi..os_str..OsStr$GT$$u20$for$u20$str$GT$6as_ref17h48e6c52cea1430a9E","ax",@progbits
	.p2align	4, 0x90
	.type	_ZN3std3ffi6os_str85_$LT$impl$u20$core..convert..AsRef$LT$std..ffi..os_str..OsStr$GT$$u20$for$u20$str$GT$6as_ref17h48e6c52cea1430a9E,@function
_ZN3std3ffi6os_str85_$LT$impl$u20$core..convert..AsRef$LT$std..ffi..os_str..OsStr$GT$$u20$for$u20$str$GT$6as_ref17h48e6c52cea1430a9E:
.Lfunc_begin18:
	.loc	1 1265 0
	.cfi_startproc
	subq	$56, %rsp
	.cfi_def_cfa_offset 64
	movq	%rdi, 40(%rsp)
	movq	%rsi, 48(%rsp)
.Ltmp53:
	.loc	1 1266 27 prologue_end
	callq	_ZN3std3sys4unix6os_str5Slice8from_str17h503caac8c0c3e47fE
	movq	%rax, 24(%rsp)
	movq	%rdx, 32(%rsp)
	.loc	1 0 27 is_stmt 0
	movq	32(%rsp), %rsi
	movq	24(%rsp), %rdi
	.loc	1 1266 9
	callq	_ZN3std3ffi6os_str5OsStr10from_inner17hc06b294b7cc7321fE
	movq	%rax, 8(%rsp)
	movq	%rdx, 16(%rsp)
	.loc	1 0 9
	movq	16(%rsp), %rdx
	movq	8(%rsp), %rax
	.loc	1 1267 6 is_stmt 1
	addq	$56, %rsp
	.cfi_def_cfa_offset 8
	retq
.Ltmp54:
.Lfunc_end18:
	.size	_ZN3std3ffi6os_str85_$LT$impl$u20$core..convert..AsRef$LT$std..ffi..os_str..OsStr$GT$$u20$for$u20$str$GT$6as_ref17h48e6c52cea1430a9E, .Lfunc_end18-_ZN3std3ffi6os_str85_$LT$impl$u20$core..convert..AsRef$LT$std..ffi..os_str..OsStr$GT$$u20$for$u20$str$GT$6as_ref17h48e6c52cea1430a9E
	.cfi_endproc

	.section	.text._ZN3std3sys4unix6os_str5Slice13from_u8_slice17h011bbc56efdd0607E,"ax",@progbits
	.p2align	4, 0x90
	.type	_ZN3std3sys4unix6os_str5Slice13from_u8_slice17h011bbc56efdd0607E,@function
_ZN3std3sys4unix6os_str5Slice13from_u8_slice17h011bbc56efdd0607E:
.Lfunc_begin19:
	.file	9 "/builddir/build/BUILD/rustc-1.62.1-src/library/std/src/sys/unix/os_str.rs"
	.loc	9 189 0
	.cfi_startproc
	subq	$48, %rsp
	.cfi_def_cfa_offset 56
	movq	%rdi, 16(%rsp)
	movq	%rsi, 24(%rsp)
.Ltmp55:
	.loc	9 190 18 prologue_end
	movq	%rdi, 32(%rsp)
	movq	%rsi, 40(%rsp)
	movq	32(%rsp), %rax
	movq	%rax, (%rsp)
	movq	40(%rsp), %rax
	movq	%rax, 8(%rsp)
	.loc	9 0 18 is_stmt 0
	movq	8(%rsp), %rdx
	movq	(%rsp), %rax
	.loc	9 191 6 is_stmt 1
	addq	$48, %rsp
	.cfi_def_cfa_offset 8
	retq
.Ltmp56:
.Lfunc_end19:
	.size	_ZN3std3sys4unix6os_str5Slice13from_u8_slice17h011bbc56efdd0607E, .Lfunc_end19-_ZN3std3sys4unix6os_str5Slice13from_u8_slice17h011bbc56efdd0607E
	.cfi_endproc

	.section	.text._ZN3std3sys4unix6os_str5Slice8from_str17h503caac8c0c3e47fE,"ax",@progbits
	.p2align	4, 0x90
	.type	_ZN3std3sys4unix6os_str5Slice8from_str17h503caac8c0c3e47fE,@function
_ZN3std3sys4unix6os_str5Slice8from_str17h503caac8c0c3e47fE:
.Lfunc_begin20:
	.loc	9 194 0
	.cfi_startproc
	subq	$88, %rsp
	.cfi_def_cfa_offset 96
	movq	%rdi, 40(%rsp)
	movq	%rsi, 48(%rsp)
	movq	%rdi, 56(%rsp)
	movq	%rsi, 64(%rsp)
.Ltmp57:
	.file	10 "/builddir/build/BUILD/rustc-1.62.1-src/library/core/src/str/mod.rs"
	.loc	10 325 18 prologue_end
	movq	%rdi, 72(%rsp)
	movq	%rsi, 80(%rsp)
	movq	72(%rsp), %rax
	movq	%rax, 24(%rsp)
	movq	80(%rsp), %rax
	movq	%rax, 32(%rsp)
.Ltmp58:
	.loc	10 0 18 is_stmt 0
	movq	32(%rsp), %rsi
	movq	24(%rsp), %rdi
	.loc	9 195 9 is_stmt 1
	callq	_ZN3std3sys4unix6os_str5Slice13from_u8_slice17h011bbc56efdd0607E
	movq	%rax, 8(%rsp)
	movq	%rdx, 16(%rsp)
	.loc	9 0 9 is_stmt 0
	movq	16(%rsp), %rdx
	movq	8(%rsp), %rax
	.loc	9 196 6 is_stmt 1
	addq	$88, %rsp
	.cfi_def_cfa_offset 8
	retq
.Ltmp59:
.Lfunc_end20:
	.size	_ZN3std3sys4unix6os_str5Slice8from_str17h503caac8c0c3e47fE, .Lfunc_end20-_ZN3std3sys4unix6os_str5Slice8from_str17h503caac8c0c3e47fE
	.cfi_endproc

	.section	.text._ZN3std3sys4unix7process14process_common8ExitCode6as_i3217h62f52f27c1133eb4E,"ax",@progbits
	.p2align	4, 0x90
	.type	_ZN3std3sys4unix7process14process_common8ExitCode6as_i3217h62f52f27c1133eb4E,@function
_ZN3std3sys4unix7process14process_common8ExitCode6as_i3217h62f52f27c1133eb4E:
.Lfunc_begin21:
	.file	11 "/builddir/build/BUILD/rustc-1.62.1-src/library/std/src/sys/unix/process/process_common.rs"
	.loc	11 485 0
	.cfi_startproc
	pushq	%rax
	.cfi_def_cfa_offset 16
	movq	%rdi, (%rsp)
.Ltmp60:
	.loc	11 486 9 prologue_end
	movzbl	(%rdi), %eax
	.loc	11 487 6
	popq	%rcx
	.cfi_def_cfa_offset 8
	retq
.Ltmp61:
.Lfunc_end21:
	.size	_ZN3std3sys4unix7process14process_common8ExitCode6as_i3217h62f52f27c1133eb4E, .Lfunc_end21-_ZN3std3sys4unix7process14process_common8ExitCode6as_i3217h62f52f27c1133eb4E
	.cfi_endproc

	.section	.text._ZN3std7process8ExitCode6to_i3217hfbf6c7cddc7d921eE,"ax",@progbits
	.p2align	4, 0x90
	.type	_ZN3std7process8ExitCode6to_i3217hfbf6c7cddc7d921eE,@function
_ZN3std7process8ExitCode6to_i3217hfbf6c7cddc7d921eE:
.Lfunc_begin22:
	.file	12 "/builddir/build/BUILD/rustc-1.62.1-src/library/std/src/process.rs"
	.loc	12 1788 0
	.cfi_startproc
	pushq	%rax
	.cfi_def_cfa_offset 16
	movb	%dil, %al
	movb	%al, 7(%rsp)
.Ltmp62:
	.loc	12 1789 9 prologue_end
	leaq	7(%rsp), %rdi
	callq	_ZN3std3sys4unix7process14process_common8ExitCode6as_i3217h62f52f27c1133eb4E
	movl	%eax, (%rsp)
	.loc	12 0 9 is_stmt 0
	movl	(%rsp), %eax
	.loc	12 1790 6 is_stmt 1
	popq	%rcx
	.cfi_def_cfa_offset 8
	retq
.Ltmp63:
.Lfunc_end22:
	.size	_ZN3std7process8ExitCode6to_i3217hfbf6c7cddc7d921eE, .Lfunc_end22-_ZN3std7process8ExitCode6to_i3217hfbf6c7cddc7d921eE
	.cfi_endproc

	.section	.text._ZN4core10intrinsics11write_bytes17h83a6877bc0a0b30eE,"ax",@progbits
	.p2align	4, 0x90
	.type	_ZN4core10intrinsics11write_bytes17h83a6877bc0a0b30eE,@function
_ZN4core10intrinsics11write_bytes17h83a6877bc0a0b30eE:
.Lfunc_begin23:
	.file	13 "/builddir/build/BUILD/rustc-1.62.1-src/library/core/src/intrinsics.rs"
	.loc	13 2291 0
	.cfi_startproc
	subq	$24, %rsp
	.cfi_def_cfa_offset 32
	movb	%sil, %al
	movq	%rdi, (%rsp)
	movb	%al, 15(%rsp)
	movq	%rdx, 16(%rsp)
.Ltmp64:
	.loc	13 2300 9 prologue_end
	shlq	$0, %rdx
	movzbl	%al, %esi
	callq	memset@PLT
	.loc	13 2302 2
	addq	$24, %rsp
	.cfi_def_cfa_offset 8
	retq
.Ltmp65:
.Lfunc_end23:
	.size	_ZN4core10intrinsics11write_bytes17h83a6877bc0a0b30eE, .Lfunc_end23-_ZN4core10intrinsics11write_bytes17h83a6877bc0a0b30eE
	.cfi_endproc

	.section	.text._ZN4core10intrinsics19copy_nonoverlapping17h3b062fee7f2ce324E,"ax",@progbits
	.p2align	4, 0x90
	.type	_ZN4core10intrinsics19copy_nonoverlapping17h3b062fee7f2ce324E,@function
_ZN4core10intrinsics19copy_nonoverlapping17h3b062fee7f2ce324E:
.Lfunc_begin24:
	.loc	13 2121 0
	.cfi_startproc
	subq	$56, %rsp
	.cfi_def_cfa_offset 64
	movq	%rsi, (%rsp)
	movq	%rdi, %rsi
	movq	(%rsp), %rdi
	movq	%rsi, 32(%rsp)
	movq	%rdi, 40(%rsp)
	movq	%rdx, 48(%rsp)
.Ltmp66:
	.loc	13 2135 9 prologue_end
	shlq	$0, %rdx
	callq	memcpy@PLT
	.loc	13 2137 2
	addq	$56, %rsp
	.cfi_def_cfa_offset 8
	retq
.Ltmp67:
.Lfunc_end24:
	.size	_ZN4core10intrinsics19copy_nonoverlapping17h3b062fee7f2ce324E, .Lfunc_end24-_ZN4core10intrinsics19copy_nonoverlapping17h3b062fee7f2ce324E
	.cfi_endproc

	.section	.text._ZN4core3cmp3Ord3max17h0627723623725e46E,"ax",@progbits
	.p2align	4, 0x90
	.type	_ZN4core3cmp3Ord3max17h0627723623725e46E,@function
_ZN4core3cmp3Ord3max17h0627723623725e46E:
.Lfunc_begin25:
	.file	14 "/builddir/build/BUILD/rustc-1.62.1-src/library/core/src/cmp.rs"
	.loc	14 796 0
	.cfi_startproc
	subq	$24, %rsp
	.cfi_def_cfa_offset 32
	movq	%rdi, 8(%rsp)
	movq	%rsi, 16(%rsp)
.Ltmp68:
	.loc	14 800 9 prologue_end
	callq	_ZN4core3cmp6max_by17h0e6b84265753e32aE
	movq	%rax, (%rsp)
	.loc	14 0 9 is_stmt 0
	movq	(%rsp), %rax
	.loc	14 801 6 is_stmt 1
	addq	$24, %rsp
	.cfi_def_cfa_offset 8
	retq
.Ltmp69:
.Lfunc_end25:
	.size	_ZN4core3cmp3Ord3max17h0627723623725e46E, .Lfunc_end25-_ZN4core3cmp3Ord3max17h0627723623725e46E
	.cfi_endproc

	.section	.text._ZN4core3cmp3max17hf1fd6aee7581c728E,"ax",@progbits
	.p2align	4, 0x90
	.type	_ZN4core3cmp3max17hf1fd6aee7581c728E,@function
_ZN4core3cmp3max17hf1fd6aee7581c728E:
.Lfunc_begin26:
	.loc	14 1257 0
	.cfi_startproc
	subq	$24, %rsp
	.cfi_def_cfa_offset 32
	movq	%rdi, 8(%rsp)
	movq	%rsi, 16(%rsp)
.Ltmp70:
	.loc	14 1258 5 prologue_end
	callq	_ZN4core3cmp3Ord3max17h0627723623725e46E
	movq	%rax, (%rsp)
	.loc	14 0 5 is_stmt 0
	movq	(%rsp), %rax
	.loc	14 1259 2 is_stmt 1
	addq	$24, %rsp
	.cfi_def_cfa_offset 8
	retq
.Ltmp71:
.Lfunc_end26:
	.size	_ZN4core3cmp3max17hf1fd6aee7581c728E, .Lfunc_end26-_ZN4core3cmp3max17hf1fd6aee7581c728E
	.cfi_endproc

	.section	".text._ZN4core3cmp5impls50_$LT$impl$u20$core..cmp..Ord$u20$for$u20$usize$GT$3cmp17h1c83edca152fb551E","ax",@progbits
	.p2align	4, 0x90
	.type	_ZN4core3cmp5impls50_$LT$impl$u20$core..cmp..Ord$u20$for$u20$usize$GT$3cmp17h1c83edca152fb551E,@function
_ZN4core3cmp5impls50_$LT$impl$u20$core..cmp..Ord$u20$for$u20$usize$GT$3cmp17h1c83edca152fb551E:
.Lfunc_begin27:
	.loc	14 1408 0
	.cfi_startproc
	subq	$40, %rsp
	.cfi_def_cfa_offset 48
	movq	%rdi, (%rsp)
	movq	%rsi, 8(%rsp)
	movq	%rdi, 24(%rsp)
	movq	%rsi, 32(%rsp)
.Ltmp72:
	.loc	14 1411 24 prologue_end
	movq	(%rdi), %rax
	cmpq	(%rsi), %rax
	jb	.LBB27_2
	.loc	14 0 24 is_stmt 0
	movq	8(%rsp), %rcx
	movq	(%rsp), %rax
	.loc	14 1412 29 is_stmt 1
	movq	(%rax), %rax
	cmpq	(%rcx), %rax
	je	.LBB27_5
	jmp	.LBB27_4
.LBB27_2:
	.loc	14 1411 41
	movb	$-1, 23(%rsp)
.LBB27_3:
	.loc	14 1414 18
	movb	23(%rsp), %al
	addq	$40, %rsp
	.cfi_def_cfa_offset 8
	retq
.LBB27_4:
	.cfi_def_cfa_offset 48
	.loc	14 1413 28
	movb	$1, 23(%rsp)
	.loc	14 1412 26
	jmp	.LBB27_6
.LBB27_5:
	.loc	14 1412 47 is_stmt 0
	movb	$0, 23(%rsp)
.LBB27_6:
	.loc	14 1411 21 is_stmt 1
	jmp	.LBB27_3
.Ltmp73:
.Lfunc_end27:
	.size	_ZN4core3cmp5impls50_$LT$impl$u20$core..cmp..Ord$u20$for$u20$usize$GT$3cmp17h1c83edca152fb551E, .Lfunc_end27-_ZN4core3cmp5impls50_$LT$impl$u20$core..cmp..Ord$u20$for$u20$usize$GT$3cmp17h1c83edca152fb551E
	.cfi_endproc

	.section	.text._ZN4core3cmp6max_by17h0e6b84265753e32aE,"ax",@progbits
	.p2align	4, 0x90
	.type	_ZN4core3cmp6max_by17h0e6b84265753e32aE,@function
_ZN4core3cmp6max_by17h0e6b84265753e32aE:
.Lfunc_begin28:
	.loc	14 1276 0
	.cfi_startproc
	.cfi_personality 155, DW.ref.rust_eh_personality
	.cfi_lsda 27, .Lexception1
	subq	$88, %rsp
	.cfi_def_cfa_offset 96
	movq	%rdi, 8(%rsp)
	movq	%rsi, 16(%rsp)
.Ltmp77:
	.loc	14 1277 11 prologue_end
	movb	$0, 63(%rsp)
	movb	$0, 62(%rsp)
	movb	$1, 63(%rsp)
	movb	$1, 62(%rsp)
	leaq	8(%rsp), %rax
	movq	%rax, 40(%rsp)
	leaq	16(%rsp), %rax
	movq	%rax, 48(%rsp)
	movq	40(%rsp), %rdi
	movq	48(%rsp), %rsi
.Ltmp74:
	callq	_ZN4core3ops8function6FnOnce9call_once17h8e6f503f447bbac2E
.Ltmp75:
	movb	%al, 7(%rsp)
	jmp	.LBB28_3
.LBB28_1:
	.loc	14 1281 1
	jmp	.LBB28_4
.LBB28_2:
.Ltmp76:
	.loc	14 0 1 is_stmt 0
	movq	%rax, %rcx
	movl	%edx, %eax
	movq	%rcx, 72(%rsp)
	movl	%eax, 80(%rsp)
	jmp	.LBB28_1
.LBB28_3:
	movb	7(%rsp), %al
	.loc	14 1277 11 is_stmt 1
	movb	%al, 39(%rsp)
	movb	39(%rsp), %al
	.loc	14 1277 5 is_stmt 0
	addb	$1, %al
	subb	$2, %al
	jb	.LBB28_6
	jmp	.LBB28_15
.LBB28_15:
	jmp	.LBB28_7
.LBB28_4:
	.loc	14 1281 1 is_stmt 1
	testb	$1, 63(%rsp)
	jne	.LBB28_12
	jmp	.LBB28_11
	.cfi_def_cfa_offset 8
	.loc	14 1277 11
	ud2
.LBB28_6:
	.cfi_def_cfa_offset 96
	.loc	14 1278 45
	movb	$0, 62(%rsp)
	movq	16(%rsp), %rax
	movq	%rax, 24(%rsp)
	jmp	.LBB28_8
.LBB28_7:
	.loc	14 1279 30
	movb	$0, 63(%rsp)
	movq	8(%rsp), %rax
	movq	%rax, 24(%rsp)
.LBB28_8:
	.loc	14 1281 1
	testb	$1, 62(%rsp)
	jne	.LBB28_10
.LBB28_9:
	testb	$1, 63(%rsp)
	jne	.LBB28_14
	jmp	.LBB28_13
.LBB28_10:
	jmp	.LBB28_9
.LBB28_11:
	.loc	14 1276 1
	movq	72(%rsp), %rdi
	callq	_Unwind_Resume@PLT
	ud2
.LBB28_12:
	.loc	14 1281 1
	jmp	.LBB28_11
.LBB28_13:
	.loc	14 1281 2 is_stmt 0
	movq	24(%rsp), %rax
	addq	$88, %rsp
	.cfi_def_cfa_offset 8
	retq
.LBB28_14:
	.cfi_def_cfa_offset 96
	.loc	14 1281 1
	jmp	.LBB28_13
.Ltmp78:
.Lfunc_end28:
	.size	_ZN4core3cmp6max_by17h0e6b84265753e32aE, .Lfunc_end28-_ZN4core3cmp6max_by17h0e6b84265753e32aE
	.cfi_endproc
	.section	.gcc_except_table._ZN4core3cmp6max_by17h0e6b84265753e32aE,"a",@progbits
	.p2align	2
GCC_except_table28:
.Lexception1:
	.byte	255
	.byte	255
	.byte	1
	.uleb128 .Lcst_end1-.Lcst_begin1
.Lcst_begin1:
	.uleb128 .Ltmp74-.Lfunc_begin28
	.uleb128 .Ltmp75-.Ltmp74
	.uleb128 .Ltmp76-.Lfunc_begin28
	.byte	0
	.uleb128 .Ltmp75-.Lfunc_begin28
	.uleb128 .Lfunc_end28-.Ltmp75
	.byte	0
	.byte	0
.Lcst_end1:
	.p2align	2

	.section	.text._ZN4core3ffi5c_str4CStr29from_bytes_with_nul_unchecked17h32b0fe225339bdf5E,"ax",@progbits
	.p2align	4, 0x90
	.type	_ZN4core3ffi5c_str4CStr29from_bytes_with_nul_unchecked17h32b0fe225339bdf5E,@function
_ZN4core3ffi5c_str4CStr29from_bytes_with_nul_unchecked17h32b0fe225339bdf5E:
.Lfunc_begin29:
	.file	15 "/builddir/build/BUILD/rustc-1.62.1-src/library/core/src/ffi/c_str.rs"
	.loc	15 370 0 is_stmt 1
	.cfi_startproc
	subq	$40, %rsp
	.cfi_def_cfa_offset 48
	movq	%rdi, 24(%rsp)
	movq	%rsi, 32(%rsp)
.Ltmp79:
	.loc	15 374 18 prologue_end
	callq	_ZN4core3ffi5c_str4CStr30_from_bytes_with_nul_unchecked17h3ce1de2418ea9528E
	movq	%rax, 8(%rsp)
	movq	%rdx, 16(%rsp)
	.loc	15 0 18 is_stmt 0
	movq	16(%rsp), %rdx
	movq	8(%rsp), %rax
	.loc	15 375 6 is_stmt 1
	addq	$40, %rsp
	.cfi_def_cfa_offset 8
	retq
.Ltmp80:
.Lfunc_end29:
	.size	_ZN4core3ffi5c_str4CStr29from_bytes_with_nul_unchecked17h32b0fe225339bdf5E, .Lfunc_end29-_ZN4core3ffi5c_str4CStr29from_bytes_with_nul_unchecked17h32b0fe225339bdf5E
	.cfi_endproc

	.section	.text._ZN4core3ffi5c_str4CStr30_from_bytes_with_nul_unchecked17h3ce1de2418ea9528E,"ax",@progbits
	.p2align	4, 0x90
	.type	_ZN4core3ffi5c_str4CStr30_from_bytes_with_nul_unchecked17h3ce1de2418ea9528E,@function
_ZN4core3ffi5c_str4CStr30_from_bytes_with_nul_unchecked17h3ce1de2418ea9528E:
.Lfunc_begin30:
	.loc	15 378 0
	.cfi_startproc
	subq	$16, %rsp
	.cfi_def_cfa_offset 24
	movq	%rsi, %rdx
	movq	%rdi, %rax
	movq	%rax, (%rsp)
	movq	%rdx, 8(%rsp)
.Ltmp81:
	.loc	15 385 6 prologue_end
	addq	$16, %rsp
	.cfi_def_cfa_offset 8
	retq
.Ltmp82:
.Lfunc_end30:
	.size	_ZN4core3ffi5c_str4CStr30_from_bytes_with_nul_unchecked17h3ce1de2418ea9528E, .Lfunc_end30-_ZN4core3ffi5c_str4CStr30_from_bytes_with_nul_unchecked17h3ce1de2418ea9528E
	.cfi_endproc

	.section	.text._ZN4core3ffi5c_str4CStr6as_ptr17ha75fda0c07bf03edE,"ax",@progbits
	.p2align	4, 0x90
	.type	_ZN4core3ffi5c_str4CStr6as_ptr17ha75fda0c07bf03edE,@function
_ZN4core3ffi5c_str4CStr6as_ptr17ha75fda0c07bf03edE:
.Lfunc_begin31:
	.loc	15 437 0
	.cfi_startproc
	subq	$24, %rsp
	.cfi_def_cfa_offset 32
	movq	%rdi, 8(%rsp)
	movq	%rsi, 16(%rsp)
.Ltmp83:
	.loc	15 438 9 prologue_end
	callq	_ZN4core5slice29_$LT$impl$u20$$u5b$T$u5d$$GT$6as_ptr17hf51717e48aae2ce4E
	movq	%rax, (%rsp)
	.loc	15 0 9 is_stmt 0
	movq	(%rsp), %rax
	.loc	15 439 6 is_stmt 1
	addq	$24, %rsp
	.cfi_def_cfa_offset 8
	retq
.Ltmp84:
.Lfunc_end31:
	.size	_ZN4core3ffi5c_str4CStr6as_ptr17ha75fda0c07bf03edE, .Lfunc_end31-_ZN4core3ffi5c_str4CStr6as_ptr17ha75fda0c07bf03edE
	.cfi_endproc

	.section	.text._ZN4core3ffi5c_str4CStr8from_ptr17hbecd8af224e9aa3fE,"ax",@progbits
	.p2align	4, 0x90
	.type	_ZN4core3ffi5c_str4CStr8from_ptr17hbecd8af224e9aa3fE,@function
_ZN4core3ffi5c_str4CStr8from_ptr17hbecd8af224e9aa3fE:
.Lfunc_begin32:
	.loc	15 233 0
	.cfi_startproc
	subq	$72, %rsp
	.cfi_def_cfa_offset 80
	movq	%rdi, 32(%rsp)
	movq	%rdi, 48(%rsp)
.Ltmp85:
	.loc	15 249 23 prologue_end
	movq	strlen@GOTPCREL(%rip), %rax
	callq	*%rax
	movq	%rax, 40(%rsp)
	movq	%rax, 56(%rsp)
	.loc	15 0 23 is_stmt 0
	movq	32(%rsp), %rdi
	movq	40(%rsp), %rsi
.Ltmp86:
	.loc	15 250 23 is_stmt 1
	movq	%rdi, 64(%rsp)
.Ltmp87:
	.loc	15 251 76
	addq	$1, %rsi
	.loc	15 251 49 is_stmt 0
	callq	_ZN4core5slice3raw14from_raw_parts17h0e0250153d627a4aE
	movq	%rax, 16(%rsp)
	movq	%rdx, 24(%rsp)
	.loc	15 0 49
	movq	24(%rsp), %rsi
	movq	16(%rsp), %rdi
	.loc	15 251 13
	callq	_ZN4core3ffi5c_str4CStr29from_bytes_with_nul_unchecked17h32b0fe225339bdf5E
	movq	%rax, (%rsp)
	movq	%rdx, 8(%rsp)
.Ltmp88:
	.loc	15 0 13
	movq	8(%rsp), %rdx
	movq	(%rsp), %rax
	.loc	15 253 6 is_stmt 1
	addq	$72, %rsp
	.cfi_def_cfa_offset 8
	retq
.Ltmp89:
.Lfunc_end32:
	.size	_ZN4core3ffi5c_str4CStr8from_ptr17hbecd8af224e9aa3fE, .Lfunc_end32-_ZN4core3ffi5c_str4CStr8from_ptr17hbecd8af224e9aa3fE
	.cfi_endproc

	.section	.text._ZN4core3mem11valid_align10ValidAlign10as_nonzero17ha5e5bda800455cdeE,"ax",@progbits
	.p2align	4, 0x90
	.type	_ZN4core3mem11valid_align10ValidAlign10as_nonzero17ha5e5bda800455cdeE,@function
_ZN4core3mem11valid_align10ValidAlign10as_nonzero17ha5e5bda800455cdeE:
.Lfunc_begin33:
	.file	16 "/builddir/build/BUILD/rustc-1.62.1-src/library/core/src/mem/valid_align.rs"
	.loc	16 37 0
	.cfi_startproc
	subq	$24, %rsp
	.cfi_def_cfa_offset 32
	movq	%rdi, 16(%rsp)
.Ltmp90:
	.loc	16 39 18 prologue_end
	callq	_ZN4core3num7nonzero12NonZeroUsize13new_unchecked17h1f33179504fc920eE
	movq	%rax, 8(%rsp)
	.loc	16 0 18 is_stmt 0
	movq	8(%rsp), %rax
	.loc	16 40 6 is_stmt 1
	addq	$24, %rsp
	.cfi_def_cfa_offset 8
	retq
.Ltmp91:
.Lfunc_end33:
	.size	_ZN4core3mem11valid_align10ValidAlign10as_nonzero17ha5e5bda800455cdeE, .Lfunc_end33-_ZN4core3mem11valid_align10ValidAlign10as_nonzero17ha5e5bda800455cdeE
	.cfi_endproc

	.section	.text._ZN4core3mem11valid_align10ValidAlign13new_unchecked17hed0ed87729296e75E,"ax",@progbits
	.p2align	4, 0x90
	.type	_ZN4core3mem11valid_align10ValidAlign13new_unchecked17hed0ed87729296e75E,@function
_ZN4core3mem11valid_align10ValidAlign13new_unchecked17hed0ed87729296e75E:
.Lfunc_begin34:
	.loc	16 28 0
	.cfi_startproc
	subq	$24, %rsp
	.cfi_def_cfa_offset 32
	movq	%rdi, 8(%rsp)
.Ltmp92:
	.loc	16 33 18 prologue_end
	movq	%rdi, 16(%rsp)
	movq	16(%rsp), %rax
	movq	%rax, (%rsp)
	.loc	16 0 18 is_stmt 0
	movq	(%rsp), %rax
	.loc	16 34 6 is_stmt 1
	addq	$24, %rsp
	.cfi_def_cfa_offset 8
	retq
.Ltmp93:
.Lfunc_end34:
	.size	_ZN4core3mem11valid_align10ValidAlign13new_unchecked17hed0ed87729296e75E, .Lfunc_end34-_ZN4core3mem11valid_align10ValidAlign13new_unchecked17hed0ed87729296e75E
	.cfi_endproc

	.section	".text._ZN4core3num23_$LT$impl$u20$usize$GT$11checked_add17h40ee73922c8c5021E","ax",@progbits
	.p2align	4, 0x90
	.type	_ZN4core3num23_$LT$impl$u20$usize$GT$11checked_add17h40ee73922c8c5021E,@function
_ZN4core3num23_$LT$impl$u20$usize$GT$11checked_add17h40ee73922c8c5021E:
.Lfunc_begin35:
	.file	17 "/builddir/build/BUILD/rustc-1.62.1-src/library/core/src/num/uint_macros.rs"
	.loc	17 437 0
	.cfi_startproc
	subq	$136, %rsp
	.cfi_def_cfa_offset 144
	movq	%rdi, 40(%rsp)
	movq	%rsi, 48(%rsp)
	movq	%rdi, 88(%rsp)
	movq	%rsi, 96(%rsp)
.Ltmp94:
	.loc	17 1501 26 prologue_end
	addq	%rsi, %rdi
	movq	%rdi, 104(%rsp)
	setb	112(%rsp)
	movq	104(%rsp), %rcx
	movb	112(%rsp), %al
	.loc	17 1501 18 is_stmt 0
	movq	%rcx, 120(%rsp)
	.loc	17 1501 21
	movb	%al, 135(%rsp)
.Ltmp95:
	.loc	17 1502 13 is_stmt 1
	movq	%rcx, 72(%rsp)
	movb	%al, 80(%rsp)
.Ltmp96:
	.loc	17 1503 10
	movq	72(%rsp), %rax
	movq	%rax, 8(%rsp)
	movb	80(%rsp), %al
	movb	%al, 23(%rsp)
.Ltmp97:
	.loc	17 0 10 is_stmt 0
	movb	23(%rsp), %al
	movq	8(%rsp), %rcx
	.loc	17 438 18 is_stmt 1
	movq	%rcx, 56(%rsp)
	.loc	17 438 21 is_stmt 0
	movb	%al, %cl
	andb	$1, %cl
	movb	%cl, 70(%rsp)
.Ltmp98:
	.loc	17 439 16 is_stmt 1
	andb	$1, %al
	movb	%al, 71(%rsp)
	movb	71(%rsp), %al
	movb	%al, 7(%rsp)
	.loc	17 0 16 is_stmt 0
	movb	7(%rsp), %al
	.loc	17 439 16
	testb	$1, %al
	jne	.LBB35_4
	jmp	.LBB35_3
.LBB35_3:
	.loc	17 0 16
	movq	8(%rsp), %rax
	.loc	17 439 42
	movq	%rax, 32(%rsp)
	movq	$1, 24(%rsp)
	.loc	17 439 13
	jmp	.LBB35_5
.LBB35_4:
	.loc	17 439 30
	movq	$0, 24(%rsp)
.Ltmp99:
.LBB35_5:
	.loc	17 440 10 is_stmt 1
	movq	24(%rsp), %rax
	movq	32(%rsp), %rdx
	addq	$136, %rsp
	.cfi_def_cfa_offset 8
	retq
.Ltmp100:
.Lfunc_end35:
	.size	_ZN4core3num23_$LT$impl$u20$usize$GT$11checked_add17h40ee73922c8c5021E, .Lfunc_end35-_ZN4core3num23_$LT$impl$u20$usize$GT$11checked_add17h40ee73922c8c5021E
	.cfi_endproc

	.section	".text._ZN4core3num23_$LT$impl$u20$usize$GT$11checked_mul17hc9176a8b3a45fe89E","ax",@progbits
	.p2align	4, 0x90
	.type	_ZN4core3num23_$LT$impl$u20$usize$GT$11checked_mul17hc9176a8b3a45fe89E,@function
_ZN4core3num23_$LT$impl$u20$usize$GT$11checked_mul17hc9176a8b3a45fe89E:
.Lfunc_begin36:
	.loc	17 552 0
	.cfi_startproc
	subq	$136, %rsp
	.cfi_def_cfa_offset 144
	movq	%rdi, %rax
	movq	%rax, 40(%rsp)
	movq	%rsi, 48(%rsp)
	movq	%rax, 88(%rsp)
	movq	%rsi, 96(%rsp)
.Ltmp101:
	.loc	17 1683 26 prologue_end
	mulq	%rsi
	movq	%rax, 104(%rsp)
	seto	112(%rsp)
	movq	104(%rsp), %rcx
	movb	112(%rsp), %al
	.loc	17 1683 18 is_stmt 0
	movq	%rcx, 120(%rsp)
	.loc	17 1683 21
	movb	%al, 135(%rsp)
.Ltmp102:
	.loc	17 1684 13 is_stmt 1
	movq	%rcx, 72(%rsp)
	movb	%al, 80(%rsp)
.Ltmp103:
	.loc	17 1685 10
	movq	72(%rsp), %rax
	movq	%rax, 8(%rsp)
	movb	80(%rsp), %al
	movb	%al, 23(%rsp)
.Ltmp104:
	.loc	17 0 10 is_stmt 0
	movb	23(%rsp), %al
	movq	8(%rsp), %rcx
	.loc	17 553 18 is_stmt 1
	movq	%rcx, 56(%rsp)
	.loc	17 553 21 is_stmt 0
	movb	%al, %cl
	andb	$1, %cl
	movb	%cl, 70(%rsp)
.Ltmp105:
	.loc	17 554 16 is_stmt 1
	andb	$1, %al
	movb	%al, 71(%rsp)
	movb	71(%rsp), %al
	movb	%al, 7(%rsp)
	.loc	17 0 16 is_stmt 0
	movb	7(%rsp), %al
	.loc	17 554 16
	testb	$1, %al
	jne	.LBB36_4
	jmp	.LBB36_3
.LBB36_3:
	.loc	17 0 16
	movq	8(%rsp), %rax
	.loc	17 554 42
	movq	%rax, 32(%rsp)
	movq	$1, 24(%rsp)
	.loc	17 554 13
	jmp	.LBB36_5
.LBB36_4:
	.loc	17 554 30
	movq	$0, 24(%rsp)
.Ltmp106:
.LBB36_5:
	.loc	17 555 10 is_stmt 1
	movq	24(%rsp), %rax
	movq	32(%rsp), %rdx
	addq	$136, %rsp
	.cfi_def_cfa_offset 8
	retq
.Ltmp107:
.Lfunc_end36:
	.size	_ZN4core3num23_$LT$impl$u20$usize$GT$11checked_mul17hc9176a8b3a45fe89E, .Lfunc_end36-_ZN4core3num23_$LT$impl$u20$usize$GT$11checked_mul17hc9176a8b3a45fe89E
	.cfi_endproc

	.section	.text._ZN4core3num7nonzero12NonZeroUsize13new_unchecked17h1f33179504fc920eE,"ax",@progbits
	.p2align	4, 0x90
	.type	_ZN4core3num7nonzero12NonZeroUsize13new_unchecked17h1f33179504fc920eE,@function
_ZN4core3num7nonzero12NonZeroUsize13new_unchecked17h1f33179504fc920eE:
.Lfunc_begin37:
	.file	18 "/builddir/build/BUILD/rustc-1.62.1-src/library/core/src/num/nonzero.rs"
	.loc	18 55 0
	.cfi_startproc
	subq	$16, %rsp
	.cfi_def_cfa_offset 24
	movq	%rdi, 8(%rsp)
.Ltmp108:
	.loc	18 59 25 prologue_end
	movq	%rdi, (%rsp)
	.loc	18 61 18
	movq	(%rsp), %rax
	addq	$16, %rsp
	.cfi_def_cfa_offset 8
	retq
.Ltmp109:
.Lfunc_end37:
	.size	_ZN4core3num7nonzero12NonZeroUsize13new_unchecked17h1f33179504fc920eE, .Lfunc_end37-_ZN4core3num7nonzero12NonZeroUsize13new_unchecked17h1f33179504fc920eE
	.cfi_endproc

	.section	.text._ZN4core3num7nonzero12NonZeroUsize3get17hff8d0336638c14a8E,"ax",@progbits
	.p2align	4, 0x90
	.type	_ZN4core3num7nonzero12NonZeroUsize3get17hff8d0336638c14a8E,@function
_ZN4core3num7nonzero12NonZeroUsize3get17hff8d0336638c14a8E:
.Lfunc_begin38:
	.loc	18 81 0
	.cfi_startproc
	pushq	%rax
	.cfi_def_cfa_offset 16
	movq	%rdi, %rax
	movq	%rax, (%rsp)
.Ltmp110:
	.loc	18 83 18 prologue_end
	popq	%rcx
	.cfi_def_cfa_offset 8
	retq
.Ltmp111:
.Lfunc_end38:
	.size	_ZN4core3num7nonzero12NonZeroUsize3get17hff8d0336638c14a8E, .Lfunc_end38-_ZN4core3num7nonzero12NonZeroUsize3get17hff8d0336638c14a8E
	.cfi_endproc

	.section	".text._ZN4core3ops8function6FnOnce40call_once$u7b$$u7b$vtable.shim$u7d$$u7d$17h91a5a02c67d930d0E","ax",@progbits
	.p2align	4, 0x90
	.type	_ZN4core3ops8function6FnOnce40call_once$u7b$$u7b$vtable.shim$u7d$$u7d$17h91a5a02c67d930d0E,@function
_ZN4core3ops8function6FnOnce40call_once$u7b$$u7b$vtable.shim$u7d$$u7d$17h91a5a02c67d930d0E:
.Lfunc_begin39:
	.file	19 "/builddir/build/BUILD/rustc-1.62.1-src/library/core/src/ops/function.rs"
	.loc	19 248 0
	.cfi_startproc
	subq	$24, %rsp
	.cfi_def_cfa_offset 32
	movq	%rdi, 16(%rsp)
.Ltmp112:
	.loc	19 248 5 prologue_end
	movq	(%rdi), %rdi
	callq	_ZN4core3ops8function6FnOnce9call_once17h2ba1c310e14d3e5fE
	movl	%eax, 4(%rsp)
	.loc	19 0 5 is_stmt 0
	movl	4(%rsp), %eax
	.loc	19 248 5
	addq	$24, %rsp
	.cfi_def_cfa_offset 8
	retq
.Ltmp113:
.Lfunc_end39:
	.size	_ZN4core3ops8function6FnOnce40call_once$u7b$$u7b$vtable.shim$u7d$$u7d$17h91a5a02c67d930d0E, .Lfunc_end39-_ZN4core3ops8function6FnOnce40call_once$u7b$$u7b$vtable.shim$u7d$$u7d$17h91a5a02c67d930d0E
	.cfi_endproc

	.section	.text._ZN4core3ops8function6FnOnce9call_once17h2ba1c310e14d3e5fE,"ax",@progbits
	.p2align	4, 0x90
	.type	_ZN4core3ops8function6FnOnce9call_once17h2ba1c310e14d3e5fE,@function
_ZN4core3ops8function6FnOnce9call_once17h2ba1c310e14d3e5fE:
.Lfunc_begin40:
	.loc	19 248 0 is_stmt 1
	.cfi_startproc
	.cfi_personality 155, DW.ref.rust_eh_personality
	.cfi_lsda 27, .Lexception2
	subq	$40, %rsp
	.cfi_def_cfa_offset 48
	movq	%rdi, 8(%rsp)
.Ltmp114:
	leaq	8(%rsp), %rdi
.Ltmp117:
	.loc	19 248 5 prologue_end
	callq	_ZN3std2rt10lang_start28_$u7b$$u7b$closure$u7d$$u7d$17h8366d297496283f4E
.Ltmp115:
	movl	%eax, 4(%rsp)
	jmp	.LBB40_3
.LBB40_1:
	jmp	.LBB40_4
.LBB40_2:
.Ltmp116:
	.loc	19 0 5 is_stmt 0
	movq	%rax, %rcx
	movl	%edx, %eax
	movq	%rcx, 24(%rsp)
	movl	%eax, 32(%rsp)
	jmp	.LBB40_1
.LBB40_3:
	.loc	19 248 5
	jmp	.LBB40_5
.LBB40_4:
	movq	24(%rsp), %rdi
	callq	_Unwind_Resume@PLT
	ud2
.LBB40_5:
	.loc	19 0 5
	movl	4(%rsp), %eax
	.loc	19 248 5
	addq	$40, %rsp
	.cfi_def_cfa_offset 8
	retq
.Ltmp118:
.Lfunc_end40:
	.size	_ZN4core3ops8function6FnOnce9call_once17h2ba1c310e14d3e5fE, .Lfunc_end40-_ZN4core3ops8function6FnOnce9call_once17h2ba1c310e14d3e5fE
	.cfi_endproc
	.section	.gcc_except_table._ZN4core3ops8function6FnOnce9call_once17h2ba1c310e14d3e5fE,"a",@progbits
	.p2align	2
GCC_except_table40:
.Lexception2:
	.byte	255
	.byte	255
	.byte	1
	.uleb128 .Lcst_end2-.Lcst_begin2
.Lcst_begin2:
	.uleb128 .Ltmp114-.Lfunc_begin40
	.uleb128 .Ltmp115-.Ltmp114
	.uleb128 .Ltmp116-.Lfunc_begin40
	.byte	0
	.uleb128 .Ltmp115-.Lfunc_begin40
	.uleb128 .Lfunc_end40-.Ltmp115
	.byte	0
	.byte	0
.Lcst_end2:
	.p2align	2

	.section	.text._ZN4core3ops8function6FnOnce9call_once17h8e6f503f447bbac2E,"ax",@progbits
	.p2align	4, 0x90
	.type	_ZN4core3ops8function6FnOnce9call_once17h8e6f503f447bbac2E,@function
_ZN4core3ops8function6FnOnce9call_once17h8e6f503f447bbac2E:
.Lfunc_begin41:
	.loc	19 248 0 is_stmt 1
	.cfi_startproc
	subq	$40, %rsp
	.cfi_def_cfa_offset 48
	movq	%rdi, 16(%rsp)
	movq	%rsi, 24(%rsp)
.Ltmp119:
	.loc	19 248 5 prologue_end
	movq	16(%rsp), %rdi
	movq	24(%rsp), %rsi
	callq	_ZN4core3cmp5impls50_$LT$impl$u20$core..cmp..Ord$u20$for$u20$usize$GT$3cmp17h1c83edca152fb551E
	movb	%al, 15(%rsp)
	.loc	19 0 5 is_stmt 0
	movb	15(%rsp), %al
	.loc	19 248 5
	addq	$40, %rsp
	.cfi_def_cfa_offset 8
	retq
.Ltmp120:
.Lfunc_end41:
	.size	_ZN4core3ops8function6FnOnce9call_once17h8e6f503f447bbac2E, .Lfunc_end41-_ZN4core3ops8function6FnOnce9call_once17h8e6f503f447bbac2E
	.cfi_endproc

	.section	.text._ZN4core3ops8function6FnOnce9call_once17hb2a235827daa4a0fE,"ax",@progbits
	.p2align	4, 0x90
	.type	_ZN4core3ops8function6FnOnce9call_once17hb2a235827daa4a0fE,@function
_ZN4core3ops8function6FnOnce9call_once17hb2a235827daa4a0fE:
.Lfunc_begin42:
	.loc	19 248 0 is_stmt 1
	.cfi_startproc
	subq	$24, %rsp
	.cfi_def_cfa_offset 32
	movq	%rdi, 16(%rsp)
.Ltmp121:
	.loc	19 248 5 prologue_end
	callq	*%rdi
	addq	$24, %rsp
	.cfi_def_cfa_offset 8
	retq
.Ltmp122:
.Lfunc_end42:
	.size	_ZN4core3ops8function6FnOnce9call_once17hb2a235827daa4a0fE, .Lfunc_end42-_ZN4core3ops8function6FnOnce9call_once17hb2a235827daa4a0fE
	.cfi_endproc

	.section	.text._ZN4core3ptr20slice_from_raw_parts17h2e505e7591019e80E,"ax",@progbits
	.p2align	4, 0x90
	.type	_ZN4core3ptr20slice_from_raw_parts17h2e505e7591019e80E,@function
_ZN4core3ptr20slice_from_raw_parts17h2e505e7591019e80E:
.Lfunc_begin43:
	.file	20 "/builddir/build/BUILD/rustc-1.62.1-src/library/core/src/ptr/mod.rs"
	.loc	20 683 0
	.cfi_startproc
	subq	$56, %rsp
	.cfi_def_cfa_offset 64
	movq	%rsi, 24(%rsp)
	movq	%rdi, 40(%rsp)
	movq	%rsi, 48(%rsp)
.Ltmp123:
	.loc	20 684 20 prologue_end
	callq	_ZN4core3ptr9const_ptr33_$LT$impl$u20$$BP$const$u20$T$GT$4cast17hf999bc75c4b64a53E
	movq	%rax, 32(%rsp)
	.loc	20 0 20 is_stmt 0
	movq	24(%rsp), %rsi
	movq	32(%rsp), %rdi
	.loc	20 684 5
	callq	_ZN4core3ptr8metadata14from_raw_parts17h7e1bf2506bb967ffE
	movq	%rax, 8(%rsp)
	movq	%rdx, 16(%rsp)
	.loc	20 0 5
	movq	16(%rsp), %rdx
	movq	8(%rsp), %rax
	.loc	20 685 2 is_stmt 1
	addq	$56, %rsp
	.cfi_def_cfa_offset 8
	retq
.Ltmp124:
.Lfunc_end43:
	.size	_ZN4core3ptr20slice_from_raw_parts17h2e505e7591019e80E, .Lfunc_end43-_ZN4core3ptr20slice_from_raw_parts17h2e505e7591019e80E
	.cfi_endproc

	.section	.text._ZN4core3ptr20slice_from_raw_parts17hbcb7e1f6aa048b2eE,"ax",@progbits
	.p2align	4, 0x90
	.type	_ZN4core3ptr20slice_from_raw_parts17hbcb7e1f6aa048b2eE,@function
_ZN4core3ptr20slice_from_raw_parts17hbcb7e1f6aa048b2eE:
.Lfunc_begin44:
	.loc	20 683 0
	.cfi_startproc
	subq	$56, %rsp
	.cfi_def_cfa_offset 64
	movq	%rsi, 24(%rsp)
	movq	%rdi, 40(%rsp)
	movq	%rsi, 48(%rsp)
.Ltmp125:
	.loc	20 684 20 prologue_end
	callq	_ZN4core3ptr9const_ptr33_$LT$impl$u20$$BP$const$u20$T$GT$4cast17h859bf25f9e8128dfE
	movq	%rax, 32(%rsp)
	.loc	20 0 20 is_stmt 0
	movq	24(%rsp), %rsi
	movq	32(%rsp), %rdi
	.loc	20 684 5
	callq	_ZN4core3ptr8metadata14from_raw_parts17h0d314b651fccc47fE
	movq	%rax, 8(%rsp)
	movq	%rdx, 16(%rsp)
	.loc	20 0 5
	movq	16(%rsp), %rdx
	movq	8(%rsp), %rax
	.loc	20 685 2 is_stmt 1
	addq	$56, %rsp
	.cfi_def_cfa_offset 8
	retq
.Ltmp126:
.Lfunc_end44:
	.size	_ZN4core3ptr20slice_from_raw_parts17hbcb7e1f6aa048b2eE, .Lfunc_end44-_ZN4core3ptr20slice_from_raw_parts17hbcb7e1f6aa048b2eE
	.cfi_endproc

	.section	.text._ZN4core3ptr24slice_from_raw_parts_mut17h3d1b18ac8c02f666E,"ax",@progbits
	.p2align	4, 0x90
	.type	_ZN4core3ptr24slice_from_raw_parts_mut17h3d1b18ac8c02f666E,@function
_ZN4core3ptr24slice_from_raw_parts_mut17h3d1b18ac8c02f666E:
.Lfunc_begin45:
	.loc	20 715 0
	.cfi_startproc
	subq	$56, %rsp
	.cfi_def_cfa_offset 64
	movq	%rsi, 16(%rsp)
	movq	%rdi, 32(%rsp)
	movq	%rsi, 40(%rsp)
	movq	%rdi, 48(%rsp)
	movq	%rdi, 24(%rsp)
	movq	16(%rsp), %rsi
	movq	24(%rsp), %rdi
.Ltmp127:
	.loc	20 716 5 prologue_end
	callq	_ZN4core3ptr8metadata18from_raw_parts_mut17h8cfb717287b9def4E
	movq	%rax, (%rsp)
	movq	%rdx, 8(%rsp)
	.loc	20 0 5 is_stmt 0
	movq	8(%rsp), %rdx
	movq	(%rsp), %rax
	.loc	20 717 2 is_stmt 1
	addq	$56, %rsp
	.cfi_def_cfa_offset 8
	retq
.Ltmp128:
.Lfunc_end45:
	.size	_ZN4core3ptr24slice_from_raw_parts_mut17h3d1b18ac8c02f666E, .Lfunc_end45-_ZN4core3ptr24slice_from_raw_parts_mut17h3d1b18ac8c02f666E
	.cfi_endproc

	.section	.text._ZN4core3ptr24slice_from_raw_parts_mut17hf1df7018f9d991f6E,"ax",@progbits
	.p2align	4, 0x90
	.type	_ZN4core3ptr24slice_from_raw_parts_mut17hf1df7018f9d991f6E,@function
_ZN4core3ptr24slice_from_raw_parts_mut17hf1df7018f9d991f6E:
.Lfunc_begin46:
	.loc	20 715 0
	.cfi_startproc
	subq	$56, %rsp
	.cfi_def_cfa_offset 64
	movq	%rsi, 16(%rsp)
	movq	%rdi, 32(%rsp)
	movq	%rsi, 40(%rsp)
	movq	%rdi, 48(%rsp)
	movq	%rdi, 24(%rsp)
	movq	16(%rsp), %rsi
	movq	24(%rsp), %rdi
.Ltmp129:
	.loc	20 716 5 prologue_end
	callq	_ZN4core3ptr8metadata18from_raw_parts_mut17h1147f328d7de8ecaE
	movq	%rax, (%rsp)
	movq	%rdx, 8(%rsp)
	.loc	20 0 5 is_stmt 0
	movq	8(%rsp), %rdx
	movq	(%rsp), %rax
	.loc	20 717 2 is_stmt 1
	addq	$56, %rsp
	.cfi_def_cfa_offset 8
	retq
.Ltmp130:
.Lfunc_end46:
	.size	_ZN4core3ptr24slice_from_raw_parts_mut17hf1df7018f9d991f6E, .Lfunc_end46-_ZN4core3ptr24slice_from_raw_parts_mut17hf1df7018f9d991f6E
	.cfi_endproc

	.section	".text._ZN4core3ptr42drop_in_place$LT$alloc..string..String$GT$17h3d54115ed9f56dfeE","ax",@progbits
	.p2align	4, 0x90
	.type	_ZN4core3ptr42drop_in_place$LT$alloc..string..String$GT$17h3d54115ed9f56dfeE,@function
_ZN4core3ptr42drop_in_place$LT$alloc..string..String$GT$17h3d54115ed9f56dfeE:
.Lfunc_begin47:
	.loc	20 486 0
	.cfi_startproc
	pushq	%rax
	.cfi_def_cfa_offset 16
	movq	%rdi, (%rsp)
.Ltmp131:
	.loc	20 486 1 prologue_end
	callq	_ZN4core3ptr46drop_in_place$LT$alloc..vec..Vec$LT$u8$GT$$GT$17h9f4617415a14e54eE
	popq	%rax
	.cfi_def_cfa_offset 8
	retq
.Ltmp132:
.Lfunc_end47:
	.size	_ZN4core3ptr42drop_in_place$LT$alloc..string..String$GT$17h3d54115ed9f56dfeE, .Lfunc_end47-_ZN4core3ptr42drop_in_place$LT$alloc..string..String$GT$17h3d54115ed9f56dfeE
	.cfi_endproc

	.section	".text._ZN4core3ptr46drop_in_place$LT$alloc..vec..Vec$LT$u8$GT$$GT$17h9f4617415a14e54eE","ax",@progbits
	.p2align	4, 0x90
	.type	_ZN4core3ptr46drop_in_place$LT$alloc..vec..Vec$LT$u8$GT$$GT$17h9f4617415a14e54eE,@function
_ZN4core3ptr46drop_in_place$LT$alloc..vec..Vec$LT$u8$GT$$GT$17h9f4617415a14e54eE:
.Lfunc_begin48:
	.loc	20 486 0
	.cfi_startproc
	.cfi_personality 155, DW.ref.rust_eh_personality
	.cfi_lsda 27, .Lexception3
	subq	$40, %rsp
	.cfi_def_cfa_offset 48
	movq	%rdi, 8(%rsp)
	movq	%rdi, 16(%rsp)
.Ltmp133:
.Ltmp139:
	.loc	20 486 1 prologue_end
	callq	_ZN70_$LT$alloc..vec..Vec$LT$T$C$A$GT$$u20$as$u20$core..ops..drop..Drop$GT$4drop17hf33143e2bd25452eE
.Ltmp134:
	jmp	.LBB48_3
.LBB48_1:
.Ltmp136:
	.loc	20 0 1 is_stmt 0
	movq	8(%rsp), %rdi
	.loc	20 486 1
	callq	_ZN4core3ptr53drop_in_place$LT$alloc..raw_vec..RawVec$LT$u8$GT$$GT$17hb474599c0cfcf0deE
.Ltmp137:
	jmp	.LBB48_5
.LBB48_2:
.Ltmp135:
	.loc	20 0 1
	movq	%rax, %rcx
	movl	%edx, %eax
	movq	%rcx, 24(%rsp)
	movl	%eax, 32(%rsp)
	jmp	.LBB48_1
.LBB48_3:
	movq	8(%rsp), %rdi
	.loc	20 486 1
	callq	_ZN4core3ptr53drop_in_place$LT$alloc..raw_vec..RawVec$LT$u8$GT$$GT$17hb474599c0cfcf0deE
	jmp	.LBB48_6
.LBB48_4:
.Ltmp138:
	movq	_ZN4core9panicking15panic_no_unwind17h67cac67fd9fa30d7E@GOTPCREL(%rip), %rax
	callq	*%rax
	ud2
.LBB48_5:
	movq	24(%rsp), %rdi
	callq	_Unwind_Resume@PLT
	ud2
.LBB48_6:
	addq	$40, %rsp
	.cfi_def_cfa_offset 8
	retq
.Ltmp140:
.Lfunc_end48:
	.size	_ZN4core3ptr46drop_in_place$LT$alloc..vec..Vec$LT$u8$GT$$GT$17h9f4617415a14e54eE, .Lfunc_end48-_ZN4core3ptr46drop_in_place$LT$alloc..vec..Vec$LT$u8$GT$$GT$17h9f4617415a14e54eE
	.cfi_endproc
	.section	".gcc_except_table._ZN4core3ptr46drop_in_place$LT$alloc..vec..Vec$LT$u8$GT$$GT$17h9f4617415a14e54eE","a",@progbits
	.p2align	2
GCC_except_table48:
.Lexception3:
	.byte	255
	.byte	255
	.byte	1
	.uleb128 .Lcst_end3-.Lcst_begin3
.Lcst_begin3:
	.uleb128 .Ltmp133-.Lfunc_begin48
	.uleb128 .Ltmp134-.Ltmp133
	.uleb128 .Ltmp135-.Lfunc_begin48
	.byte	0
	.uleb128 .Ltmp136-.Lfunc_begin48
	.uleb128 .Ltmp137-.Ltmp136
	.uleb128 .Ltmp138-.Lfunc_begin48
	.byte	0
	.uleb128 .Ltmp137-.Lfunc_begin48
	.uleb128 .Lfunc_end48-.Ltmp137
	.byte	0
	.byte	0
.Lcst_end3:
	.p2align	2

	.section	".text._ZN4core3ptr49drop_in_place$LT$alloc..vec..Vec$LT$usize$GT$$GT$17haaf740cb608c5c2bE","ax",@progbits
	.p2align	4, 0x90
	.type	_ZN4core3ptr49drop_in_place$LT$alloc..vec..Vec$LT$usize$GT$$GT$17haaf740cb608c5c2bE,@function
_ZN4core3ptr49drop_in_place$LT$alloc..vec..Vec$LT$usize$GT$$GT$17haaf740cb608c5c2bE:
.Lfunc_begin49:
	.loc	20 486 0 is_stmt 1
	.cfi_startproc
	.cfi_personality 155, DW.ref.rust_eh_personality
	.cfi_lsda 27, .Lexception4
	subq	$40, %rsp
	.cfi_def_cfa_offset 48
	movq	%rdi, 8(%rsp)
	movq	%rdi, 16(%rsp)
.Ltmp141:
.Ltmp147:
	.loc	20 486 1 prologue_end
	callq	_ZN70_$LT$alloc..vec..Vec$LT$T$C$A$GT$$u20$as$u20$core..ops..drop..Drop$GT$4drop17h4ee00314839b579aE
.Ltmp142:
	jmp	.LBB49_3
.LBB49_1:
.Ltmp144:
	.loc	20 0 1 is_stmt 0
	movq	8(%rsp), %rdi
	.loc	20 486 1
	callq	_ZN4core3ptr56drop_in_place$LT$alloc..raw_vec..RawVec$LT$usize$GT$$GT$17h9af1e0f18a1d4909E
.Ltmp145:
	jmp	.LBB49_5
.LBB49_2:
.Ltmp143:
	.loc	20 0 1
	movq	%rax, %rcx
	movl	%edx, %eax
	movq	%rcx, 24(%rsp)
	movl	%eax, 32(%rsp)
	jmp	.LBB49_1
.LBB49_3:
	movq	8(%rsp), %rdi
	.loc	20 486 1
	callq	_ZN4core3ptr56drop_in_place$LT$alloc..raw_vec..RawVec$LT$usize$GT$$GT$17h9af1e0f18a1d4909E
	jmp	.LBB49_6
.LBB49_4:
.Ltmp146:
	movq	_ZN4core9panicking15panic_no_unwind17h67cac67fd9fa30d7E@GOTPCREL(%rip), %rax
	callq	*%rax
	ud2
.LBB49_5:
	movq	24(%rsp), %rdi
	callq	_Unwind_Resume@PLT
	ud2
.LBB49_6:
	addq	$40, %rsp
	.cfi_def_cfa_offset 8
	retq
.Ltmp148:
.Lfunc_end49:
	.size	_ZN4core3ptr49drop_in_place$LT$alloc..vec..Vec$LT$usize$GT$$GT$17haaf740cb608c5c2bE, .Lfunc_end49-_ZN4core3ptr49drop_in_place$LT$alloc..vec..Vec$LT$usize$GT$$GT$17haaf740cb608c5c2bE
	.cfi_endproc
	.section	".gcc_except_table._ZN4core3ptr49drop_in_place$LT$alloc..vec..Vec$LT$usize$GT$$GT$17haaf740cb608c5c2bE","a",@progbits
	.p2align	2
GCC_except_table49:
.Lexception4:
	.byte	255
	.byte	255
	.byte	1
	.uleb128 .Lcst_end4-.Lcst_begin4
.Lcst_begin4:
	.uleb128 .Ltmp141-.Lfunc_begin49
	.uleb128 .Ltmp142-.Ltmp141
	.uleb128 .Ltmp143-.Lfunc_begin49
	.byte	0
	.uleb128 .Ltmp144-.Lfunc_begin49
	.uleb128 .Ltmp145-.Ltmp144
	.uleb128 .Ltmp146-.Lfunc_begin49
	.byte	0
	.uleb128 .Ltmp145-.Lfunc_begin49
	.uleb128 .Lfunc_end49-.Ltmp145
	.byte	0
	.byte	0
.Lcst_end4:
	.p2align	2

	.section	.text._ZN4core3ptr4read17h48ccf245a7ba4db6E,"ax",@progbits
	.p2align	4, 0x90
	.type	_ZN4core3ptr4read17h48ccf245a7ba4db6E,@function
_ZN4core3ptr4read17h48ccf245a7ba4db6E:
.Lfunc_begin50:
	.loc	20 1080 0 is_stmt 1
	.cfi_startproc
	subq	$32, %rsp
	.cfi_def_cfa_offset 40
	movq	%rdi, 8(%rsp)
	movq	%rsp, %rax
	movq	%rax, 16(%rsp)
.Ltmp149:
	.file	21 "/builddir/build/BUILD/rustc-1.62.1-src/library/core/src/mem/maybe_uninit.rs"
	.loc	21 576 9 prologue_end
	movq	%rsp, %rax
.Ltmp150:
	.loc	20 1099 2
	addq	$32, %rsp
	.cfi_def_cfa_offset 8
	retq
.Ltmp151:
.Lfunc_end50:
	.size	_ZN4core3ptr4read17h48ccf245a7ba4db6E, .Lfunc_end50-_ZN4core3ptr4read17h48ccf245a7ba4db6E
	.cfi_endproc

	.section	".text._ZN4core3ptr53drop_in_place$LT$alloc..raw_vec..RawVec$LT$u8$GT$$GT$17hb474599c0cfcf0deE","ax",@progbits
	.p2align	4, 0x90
	.type	_ZN4core3ptr53drop_in_place$LT$alloc..raw_vec..RawVec$LT$u8$GT$$GT$17hb474599c0cfcf0deE,@function
_ZN4core3ptr53drop_in_place$LT$alloc..raw_vec..RawVec$LT$u8$GT$$GT$17hb474599c0cfcf0deE:
.Lfunc_begin51:
	.loc	20 486 0
	.cfi_startproc
	pushq	%rax
	.cfi_def_cfa_offset 16
	movq	%rdi, (%rsp)
.Ltmp152:
	.loc	20 486 1 prologue_end
	callq	_ZN77_$LT$alloc..raw_vec..RawVec$LT$T$C$A$GT$$u20$as$u20$core..ops..drop..Drop$GT$4drop17hd9220f7ef8dce732E
	popq	%rax
	.cfi_def_cfa_offset 8
	retq
.Ltmp153:
.Lfunc_end51:
	.size	_ZN4core3ptr53drop_in_place$LT$alloc..raw_vec..RawVec$LT$u8$GT$$GT$17hb474599c0cfcf0deE, .Lfunc_end51-_ZN4core3ptr53drop_in_place$LT$alloc..raw_vec..RawVec$LT$u8$GT$$GT$17hb474599c0cfcf0deE
	.cfi_endproc

	.section	".text._ZN4core3ptr56drop_in_place$LT$alloc..raw_vec..RawVec$LT$usize$GT$$GT$17h9af1e0f18a1d4909E","ax",@progbits
	.p2align	4, 0x90
	.type	_ZN4core3ptr56drop_in_place$LT$alloc..raw_vec..RawVec$LT$usize$GT$$GT$17h9af1e0f18a1d4909E,@function
_ZN4core3ptr56drop_in_place$LT$alloc..raw_vec..RawVec$LT$usize$GT$$GT$17h9af1e0f18a1d4909E:
.Lfunc_begin52:
	.loc	20 486 0
	.cfi_startproc
	pushq	%rax
	.cfi_def_cfa_offset 16
	movq	%rdi, (%rsp)
.Ltmp154:
	.loc	20 486 1 prologue_end
	callq	_ZN77_$LT$alloc..raw_vec..RawVec$LT$T$C$A$GT$$u20$as$u20$core..ops..drop..Drop$GT$4drop17h669c809c9e0f363eE
	popq	%rax
	.cfi_def_cfa_offset 8
	retq
.Ltmp155:
.Lfunc_end52:
	.size	_ZN4core3ptr56drop_in_place$LT$alloc..raw_vec..RawVec$LT$usize$GT$$GT$17h9af1e0f18a1d4909E, .Lfunc_end52-_ZN4core3ptr56drop_in_place$LT$alloc..raw_vec..RawVec$LT$usize$GT$$GT$17h9af1e0f18a1d4909E
	.cfi_endproc

	.section	.text._ZN4core3ptr5write17heee9add756df0b09E,"ax",@progbits
	.p2align	4, 0x90
	.type	_ZN4core3ptr5write17heee9add756df0b09E,@function
_ZN4core3ptr5write17heee9add756df0b09E:
.Lfunc_begin53:
	.loc	20 1275 0
	.cfi_startproc
	subq	$16, %rsp
	.cfi_def_cfa_offset 24
	movb	%sil, %al
	movb	%al, 7(%rsp)
	movq	%rdi, 8(%rsp)
.Ltmp156:
	.loc	20 1287 9 prologue_end
	movb	7(%rsp), %al
	movb	%al, (%rdi)
	.loc	20 1290 2
	addq	$16, %rsp
	.cfi_def_cfa_offset 8
	retq
.Ltmp157:
.Lfunc_end53:
	.size	_ZN4core3ptr5write17heee9add756df0b09E, .Lfunc_end53-_ZN4core3ptr5write17heee9add756df0b09E
	.cfi_endproc

	.section	".text._ZN4core3ptr61drop_in_place$LT$alloc..boxed..Box$LT$$u5b$usize$u5d$$GT$$GT$17h91210f0dc59861e9E","ax",@progbits
	.p2align	4, 0x90
	.type	_ZN4core3ptr61drop_in_place$LT$alloc..boxed..Box$LT$$u5b$usize$u5d$$GT$$GT$17h91210f0dc59861e9E,@function
_ZN4core3ptr61drop_in_place$LT$alloc..boxed..Box$LT$$u5b$usize$u5d$$GT$$GT$17h91210f0dc59861e9E:
.Lfunc_begin54:
	.loc	20 486 0
	.cfi_startproc
	subq	$40, %rsp
	.cfi_def_cfa_offset 48
	movq	%rdi, 8(%rsp)
	movq	%rdi, 16(%rsp)
	movq	8(%rsp), %rax
.Ltmp158:
	.loc	20 486 1 prologue_end
	movq	(%rax), %rdi
	movq	8(%rax), %rsi
	callq	_ZN5alloc5alloc8box_free17h32965968b849b6bfE
	addq	$40, %rsp
	.cfi_def_cfa_offset 8
	retq
.Ltmp159:
.Lfunc_end54:
	.size	_ZN4core3ptr61drop_in_place$LT$alloc..boxed..Box$LT$$u5b$usize$u5d$$GT$$GT$17h91210f0dc59861e9E, .Lfunc_end54-_ZN4core3ptr61drop_in_place$LT$alloc..boxed..Box$LT$$u5b$usize$u5d$$GT$$GT$17h91210f0dc59861e9E
	.cfi_endproc

	.section	".text._ZN4core3ptr6unique15Unique$LT$T$GT$13new_unchecked17h5c739c4e0f0c7106E","ax",@progbits
	.p2align	4, 0x90
	.type	_ZN4core3ptr6unique15Unique$LT$T$GT$13new_unchecked17h5c739c4e0f0c7106E,@function
_ZN4core3ptr6unique15Unique$LT$T$GT$13new_unchecked17h5c739c4e0f0c7106E:
.Lfunc_begin55:
	.loc	3 85 0
	.cfi_startproc
	subq	$24, %rsp
	.cfi_def_cfa_offset 32
	movq	%rdi, 16(%rsp)
.Ltmp160:
	.loc	3 87 36 prologue_end
	callq	_ZN4core3ptr8non_null16NonNull$LT$T$GT$13new_unchecked17h63dd0df0de5418e5E
	movq	%rax, (%rsp)
	.loc	3 0 36 is_stmt 0
	movq	(%rsp), %rax
	.loc	3 87 18
	movq	%rax, 8(%rsp)
	.loc	3 88 6 is_stmt 1
	movq	8(%rsp), %rax
	addq	$24, %rsp
	.cfi_def_cfa_offset 8
	retq
.Ltmp161:
.Lfunc_end55:
	.size	_ZN4core3ptr6unique15Unique$LT$T$GT$13new_unchecked17h5c739c4e0f0c7106E, .Lfunc_end55-_ZN4core3ptr6unique15Unique$LT$T$GT$13new_unchecked17h5c739c4e0f0c7106E
	.cfi_endproc

	.section	".text._ZN4core3ptr6unique15Unique$LT$T$GT$13new_unchecked17hebc34a14c9dbee9dE","ax",@progbits
	.p2align	4, 0x90
	.type	_ZN4core3ptr6unique15Unique$LT$T$GT$13new_unchecked17hebc34a14c9dbee9dE,@function
_ZN4core3ptr6unique15Unique$LT$T$GT$13new_unchecked17hebc34a14c9dbee9dE:
.Lfunc_begin56:
	.loc	3 85 0
	.cfi_startproc
	subq	$24, %rsp
	.cfi_def_cfa_offset 32
	movq	%rdi, 16(%rsp)
.Ltmp162:
	.loc	3 87 36 prologue_end
	callq	_ZN4core3ptr8non_null16NonNull$LT$T$GT$13new_unchecked17h5f15a3ad47ed5c56E
	movq	%rax, (%rsp)
	.loc	3 0 36 is_stmt 0
	movq	(%rsp), %rax
	.loc	3 87 18
	movq	%rax, 8(%rsp)
	.loc	3 88 6 is_stmt 1
	movq	8(%rsp), %rax
	addq	$24, %rsp
	.cfi_def_cfa_offset 8
	retq
.Ltmp163:
.Lfunc_end56:
	.size	_ZN4core3ptr6unique15Unique$LT$T$GT$13new_unchecked17hebc34a14c9dbee9dE, .Lfunc_end56-_ZN4core3ptr6unique15Unique$LT$T$GT$13new_unchecked17hebc34a14c9dbee9dE
	.cfi_endproc

	.section	".text._ZN4core3ptr6unique15Unique$LT$T$GT$4cast17h00c5c7b22d20d67dE","ax",@progbits
	.p2align	4, 0x90
	.type	_ZN4core3ptr6unique15Unique$LT$T$GT$4cast17h00c5c7b22d20d67dE,@function
_ZN4core3ptr6unique15Unique$LT$T$GT$4cast17h00c5c7b22d20d67dE:
.Lfunc_begin57:
	.loc	3 136 0
	.cfi_startproc
	subq	$24, %rsp
	.cfi_def_cfa_offset 32
	movq	%rdi, 16(%rsp)
.Ltmp164:
	.loc	3 137 22 prologue_end
	callq	_ZN4core3ptr8non_null16NonNull$LT$T$GT$4cast17hf6cad42919946c7aE
	movq	%rax, 8(%rsp)
	.loc	3 0 22 is_stmt 0
	movq	8(%rsp), %rdi
	.loc	3 137 9
	callq	_ZN119_$LT$core..ptr..unique..Unique$LT$T$GT$$u20$as$u20$core..convert..From$LT$core..ptr..non_null..NonNull$LT$T$GT$$GT$$GT$4from17h13f85e051658e29fE
	movq	%rax, (%rsp)
	.loc	3 0 9
	movq	(%rsp), %rax
	.loc	3 138 6 is_stmt 1
	addq	$24, %rsp
	.cfi_def_cfa_offset 8
	retq
.Ltmp165:
.Lfunc_end57:
	.size	_ZN4core3ptr6unique15Unique$LT$T$GT$4cast17h00c5c7b22d20d67dE, .Lfunc_end57-_ZN4core3ptr6unique15Unique$LT$T$GT$4cast17h00c5c7b22d20d67dE
	.cfi_endproc

	.section	".text._ZN4core3ptr6unique15Unique$LT$T$GT$4cast17h77969de65e574b5dE","ax",@progbits
	.p2align	4, 0x90
	.type	_ZN4core3ptr6unique15Unique$LT$T$GT$4cast17h77969de65e574b5dE,@function
_ZN4core3ptr6unique15Unique$LT$T$GT$4cast17h77969de65e574b5dE:
.Lfunc_begin58:
	.loc	3 136 0
	.cfi_startproc
	subq	$40, %rsp
	.cfi_def_cfa_offset 48
	movq	%rdi, 24(%rsp)
	movq	%rsi, 32(%rsp)
.Ltmp166:
	.loc	3 137 22 prologue_end
	callq	_ZN4core3ptr8non_null16NonNull$LT$T$GT$4cast17hd0c403b7ab36e22cE
	movq	%rax, 16(%rsp)
	.loc	3 0 22 is_stmt 0
	movq	16(%rsp), %rdi
	.loc	3 137 9
	callq	_ZN119_$LT$core..ptr..unique..Unique$LT$T$GT$$u20$as$u20$core..convert..From$LT$core..ptr..non_null..NonNull$LT$T$GT$$GT$$GT$4from17h13f85e051658e29fE
	movq	%rax, 8(%rsp)
	.loc	3 0 9
	movq	8(%rsp), %rax
	.loc	3 138 6 is_stmt 1
	addq	$40, %rsp
	.cfi_def_cfa_offset 8
	retq
.Ltmp167:
.Lfunc_end58:
	.size	_ZN4core3ptr6unique15Unique$LT$T$GT$4cast17h77969de65e574b5dE, .Lfunc_end58-_ZN4core3ptr6unique15Unique$LT$T$GT$4cast17h77969de65e574b5dE
	.cfi_endproc

	.section	".text._ZN4core3ptr6unique15Unique$LT$T$GT$4cast17h89249a7696c43315E","ax",@progbits
	.p2align	4, 0x90
	.type	_ZN4core3ptr6unique15Unique$LT$T$GT$4cast17h89249a7696c43315E,@function
_ZN4core3ptr6unique15Unique$LT$T$GT$4cast17h89249a7696c43315E:
.Lfunc_begin59:
	.loc	3 136 0
	.cfi_startproc
	subq	$24, %rsp
	.cfi_def_cfa_offset 32
	movq	%rdi, 16(%rsp)
.Ltmp168:
	.loc	3 137 22 prologue_end
	callq	_ZN4core3ptr8non_null16NonNull$LT$T$GT$4cast17h9490e18eccccbc7aE
	movq	%rax, 8(%rsp)
	.loc	3 0 22 is_stmt 0
	movq	8(%rsp), %rdi
	.loc	3 137 9
	callq	_ZN119_$LT$core..ptr..unique..Unique$LT$T$GT$$u20$as$u20$core..convert..From$LT$core..ptr..non_null..NonNull$LT$T$GT$$GT$$GT$4from17h13f85e051658e29fE
	movq	%rax, (%rsp)
	.loc	3 0 9
	movq	(%rsp), %rax
	.loc	3 138 6 is_stmt 1
	addq	$24, %rsp
	.cfi_def_cfa_offset 8
	retq
.Ltmp169:
.Lfunc_end59:
	.size	_ZN4core3ptr6unique15Unique$LT$T$GT$4cast17h89249a7696c43315E, .Lfunc_end59-_ZN4core3ptr6unique15Unique$LT$T$GT$4cast17h89249a7696c43315E
	.cfi_endproc

	.section	".text._ZN4core3ptr6unique15Unique$LT$T$GT$4cast17haf422f699b7b3306E","ax",@progbits
	.p2align	4, 0x90
	.type	_ZN4core3ptr6unique15Unique$LT$T$GT$4cast17haf422f699b7b3306E,@function
_ZN4core3ptr6unique15Unique$LT$T$GT$4cast17haf422f699b7b3306E:
.Lfunc_begin60:
	.loc	3 136 0
	.cfi_startproc
	subq	$24, %rsp
	.cfi_def_cfa_offset 32
	movq	%rdi, 16(%rsp)
.Ltmp170:
	.loc	3 137 22 prologue_end
	callq	_ZN4core3ptr8non_null16NonNull$LT$T$GT$4cast17h062a3f971617d55cE
	movq	%rax, 8(%rsp)
	.loc	3 0 22 is_stmt 0
	movq	8(%rsp), %rdi
	.loc	3 137 9
	callq	_ZN119_$LT$core..ptr..unique..Unique$LT$T$GT$$u20$as$u20$core..convert..From$LT$core..ptr..non_null..NonNull$LT$T$GT$$GT$$GT$4from17h13f85e051658e29fE
	movq	%rax, (%rsp)
	.loc	3 0 9
	movq	(%rsp), %rax
	.loc	3 138 6 is_stmt 1
	addq	$24, %rsp
	.cfi_def_cfa_offset 8
	retq
.Ltmp171:
.Lfunc_end60:
	.size	_ZN4core3ptr6unique15Unique$LT$T$GT$4cast17haf422f699b7b3306E, .Lfunc_end60-_ZN4core3ptr6unique15Unique$LT$T$GT$4cast17haf422f699b7b3306E
	.cfi_endproc

	.section	".text._ZN4core3ptr6unique15Unique$LT$T$GT$6as_ptr17h1aa9c041b88487b8E","ax",@progbits
	.p2align	4, 0x90
	.type	_ZN4core3ptr6unique15Unique$LT$T$GT$6as_ptr17h1aa9c041b88487b8E,@function
_ZN4core3ptr6unique15Unique$LT$T$GT$6as_ptr17h1aa9c041b88487b8E:
.Lfunc_begin61:
	.loc	3 103 0
	.cfi_startproc
	subq	$24, %rsp
	.cfi_def_cfa_offset 32
	movq	%rdi, 16(%rsp)
.Ltmp172:
	.loc	3 104 9 prologue_end
	callq	_ZN4core3ptr8non_null16NonNull$LT$T$GT$6as_ptr17h61ba236601e4b3abE
	movq	%rax, 8(%rsp)
	.loc	3 0 9 is_stmt 0
	movq	8(%rsp), %rax
	.loc	3 105 6 is_stmt 1
	addq	$24, %rsp
	.cfi_def_cfa_offset 8
	retq
.Ltmp173:
.Lfunc_end61:
	.size	_ZN4core3ptr6unique15Unique$LT$T$GT$6as_ptr17h1aa9c041b88487b8E, .Lfunc_end61-_ZN4core3ptr6unique15Unique$LT$T$GT$6as_ptr17h1aa9c041b88487b8E
	.cfi_endproc

	.section	".text._ZN4core3ptr6unique15Unique$LT$T$GT$6as_ptr17h7e006c4c39531650E","ax",@progbits
	.p2align	4, 0x90
	.type	_ZN4core3ptr6unique15Unique$LT$T$GT$6as_ptr17h7e006c4c39531650E,@function
_ZN4core3ptr6unique15Unique$LT$T$GT$6as_ptr17h7e006c4c39531650E:
.Lfunc_begin62:
	.loc	3 103 0
	.cfi_startproc
	subq	$40, %rsp
	.cfi_def_cfa_offset 48
	movq	%rdi, 24(%rsp)
	movq	%rsi, 32(%rsp)
.Ltmp174:
	.loc	3 104 9 prologue_end
	callq	_ZN4core3ptr8non_null16NonNull$LT$T$GT$6as_ptr17h49dd076789c93e62E
	movq	%rax, 8(%rsp)
	movq	%rdx, 16(%rsp)
	.loc	3 0 9 is_stmt 0
	movq	16(%rsp), %rdx
	movq	8(%rsp), %rax
	.loc	3 105 6 is_stmt 1
	addq	$40, %rsp
	.cfi_def_cfa_offset 8
	retq
.Ltmp175:
.Lfunc_end62:
	.size	_ZN4core3ptr6unique15Unique$LT$T$GT$6as_ptr17h7e006c4c39531650E, .Lfunc_end62-_ZN4core3ptr6unique15Unique$LT$T$GT$6as_ptr17h7e006c4c39531650E
	.cfi_endproc

	.section	".text._ZN4core3ptr6unique15Unique$LT$T$GT$6as_ptr17h7ef1e6fec22aa4d5E","ax",@progbits
	.p2align	4, 0x90
	.type	_ZN4core3ptr6unique15Unique$LT$T$GT$6as_ptr17h7ef1e6fec22aa4d5E,@function
_ZN4core3ptr6unique15Unique$LT$T$GT$6as_ptr17h7ef1e6fec22aa4d5E:
.Lfunc_begin63:
	.loc	3 103 0
	.cfi_startproc
	subq	$24, %rsp
	.cfi_def_cfa_offset 32
	movq	%rdi, 16(%rsp)
.Ltmp176:
	.loc	3 104 9 prologue_end
	callq	_ZN4core3ptr8non_null16NonNull$LT$T$GT$6as_ptr17h808fdef249a03bf0E
	movq	%rax, 8(%rsp)
	.loc	3 0 9 is_stmt 0
	movq	8(%rsp), %rax
	.loc	3 105 6 is_stmt 1
	addq	$24, %rsp
	.cfi_def_cfa_offset 8
	retq
.Ltmp177:
.Lfunc_end63:
	.size	_ZN4core3ptr6unique15Unique$LT$T$GT$6as_ptr17h7ef1e6fec22aa4d5E, .Lfunc_end63-_ZN4core3ptr6unique15Unique$LT$T$GT$6as_ptr17h7ef1e6fec22aa4d5E
	.cfi_endproc

	.section	".text._ZN4core3ptr6unique15Unique$LT$T$GT$6as_ref17h1727a8ab5a70c8d5E","ax",@progbits
	.p2align	4, 0x90
	.type	_ZN4core3ptr6unique15Unique$LT$T$GT$6as_ref17h1727a8ab5a70c8d5E,@function
_ZN4core3ptr6unique15Unique$LT$T$GT$6as_ref17h1727a8ab5a70c8d5E:
.Lfunc_begin64:
	.loc	3 114 0
	.cfi_startproc
	subq	$24, %rsp
	.cfi_def_cfa_offset 32
	movq	%rdi, 16(%rsp)
.Ltmp178:
	.loc	3 117 18 prologue_end
	callq	_ZN4core3ptr8non_null16NonNull$LT$T$GT$6as_ref17h8bb3688246d0c2a1E
	movq	%rax, 8(%rsp)
	.loc	3 0 18 is_stmt 0
	movq	8(%rsp), %rax
	.loc	3 118 6 is_stmt 1
	addq	$24, %rsp
	.cfi_def_cfa_offset 8
	retq
.Ltmp179:
.Lfunc_end64:
	.size	_ZN4core3ptr6unique15Unique$LT$T$GT$6as_ref17h1727a8ab5a70c8d5E, .Lfunc_end64-_ZN4core3ptr6unique15Unique$LT$T$GT$6as_ref17h1727a8ab5a70c8d5E
	.cfi_endproc

	.section	".text._ZN4core3ptr6unique15Unique$LT$T$GT$6as_ref17he2cc73ff9e1fdca6E","ax",@progbits
	.p2align	4, 0x90
	.type	_ZN4core3ptr6unique15Unique$LT$T$GT$6as_ref17he2cc73ff9e1fdca6E,@function
_ZN4core3ptr6unique15Unique$LT$T$GT$6as_ref17he2cc73ff9e1fdca6E:
.Lfunc_begin65:
	.loc	3 114 0
	.cfi_startproc
	subq	$24, %rsp
	.cfi_def_cfa_offset 32
	movq	%rdi, 16(%rsp)
.Ltmp180:
	.loc	3 117 18 prologue_end
	callq	_ZN4core3ptr8non_null16NonNull$LT$T$GT$6as_ref17h9e996e71486d9d7eE
	movq	%rax, (%rsp)
	movq	%rdx, 8(%rsp)
	.loc	3 0 18 is_stmt 0
	movq	8(%rsp), %rdx
	movq	(%rsp), %rax
	.loc	3 118 6 is_stmt 1
	addq	$24, %rsp
	.cfi_def_cfa_offset 8
	retq
.Ltmp181:
.Lfunc_end65:
	.size	_ZN4core3ptr6unique15Unique$LT$T$GT$6as_ref17he2cc73ff9e1fdca6E, .Lfunc_end65-_ZN4core3ptr6unique15Unique$LT$T$GT$6as_ref17he2cc73ff9e1fdca6E
	.cfi_endproc

	.section	".text._ZN4core3ptr6unique15Unique$LT$T$GT$8dangling17h862316870ea626f4E","ax",@progbits
	.p2align	4, 0x90
	.type	_ZN4core3ptr6unique15Unique$LT$T$GT$8dangling17h862316870ea626f4E,@function
_ZN4core3ptr6unique15Unique$LT$T$GT$8dangling17h862316870ea626f4E:
.Lfunc_begin66:
	.loc	3 72 0
	.cfi_startproc
	subq	$24, %rsp
	.cfi_def_cfa_offset 32
.Ltmp182:
	.loc	3 73 20 prologue_end
	callq	_ZN4core3ptr8non_null16NonNull$LT$T$GT$8dangling17hc212c4044d0d772bE
	movq	%rax, 16(%rsp)
	.loc	3 0 20 is_stmt 0
	movq	16(%rsp), %rdi
	.loc	3 73 9
	callq	_ZN119_$LT$core..ptr..unique..Unique$LT$T$GT$$u20$as$u20$core..convert..From$LT$core..ptr..non_null..NonNull$LT$T$GT$$GT$$GT$4from17h13f85e051658e29fE
	movq	%rax, 8(%rsp)
	.loc	3 0 9
	movq	8(%rsp), %rax
	.loc	3 74 6 is_stmt 1
	addq	$24, %rsp
	.cfi_def_cfa_offset 8
	retq
.Ltmp183:
.Lfunc_end66:
	.size	_ZN4core3ptr6unique15Unique$LT$T$GT$8dangling17h862316870ea626f4E, .Lfunc_end66-_ZN4core3ptr6unique15Unique$LT$T$GT$8dangling17h862316870ea626f4E
	.cfi_endproc

	.section	".text._ZN4core3ptr7mut_ptr31_$LT$impl$u20$$BP$mut$u20$T$GT$13guaranteed_eq17hec5d28bacc0d87e2E","ax",@progbits
	.p2align	4, 0x90
	.type	_ZN4core3ptr7mut_ptr31_$LT$impl$u20$$BP$mut$u20$T$GT$13guaranteed_eq17hec5d28bacc0d87e2E,@function
_ZN4core3ptr7mut_ptr31_$LT$impl$u20$$BP$mut$u20$T$GT$13guaranteed_eq17hec5d28bacc0d87e2E:
.Lfunc_begin67:
	.file	22 "/builddir/build/BUILD/rustc-1.62.1-src/library/core/src/ptr/mut_ptr.rs"
	.loc	22 660 0
	.cfi_startproc
	subq	$32, %rsp
	.cfi_def_cfa_offset 40
	movq	%rdi, 8(%rsp)
	movq	%rsi, 16(%rsp)
.Ltmp184:
	.loc	22 664 9 prologue_end
	cmpq	%rsi, %rdi
	sete	%al
	andb	$1, %al
	movb	%al, 31(%rsp)
	movb	31(%rsp), %al
	movb	%al, 7(%rsp)
	.loc	22 0 9 is_stmt 0
	movb	7(%rsp), %al
	.loc	22 665 6 is_stmt 1
	andb	$1, %al
	movzbl	%al, %eax
	addq	$32, %rsp
	.cfi_def_cfa_offset 8
	retq
.Ltmp185:
.Lfunc_end67:
	.size	_ZN4core3ptr7mut_ptr31_$LT$impl$u20$$BP$mut$u20$T$GT$13guaranteed_eq17hec5d28bacc0d87e2E, .Lfunc_end67-_ZN4core3ptr7mut_ptr31_$LT$impl$u20$$BP$mut$u20$T$GT$13guaranteed_eq17hec5d28bacc0d87e2E
	.cfi_endproc

	.section	".text._ZN4core3ptr7mut_ptr31_$LT$impl$u20$$BP$mut$u20$T$GT$4addr17hbb254bfddd695fdcE","ax",@progbits
	.p2align	4, 0x90
	.type	_ZN4core3ptr7mut_ptr31_$LT$impl$u20$$BP$mut$u20$T$GT$4addr17hbb254bfddd695fdcE,@function
_ZN4core3ptr7mut_ptr31_$LT$impl$u20$$BP$mut$u20$T$GT$4addr17hbb254bfddd695fdcE:
.Lfunc_begin68:
	.loc	22 182 0
	.cfi_startproc
	pushq	%rax
	.cfi_def_cfa_offset 16
	movq	%rdi, %rax
	movq	%rax, (%rsp)
.Ltmp186:
	.loc	22 188 6 prologue_end
	popq	%rcx
	.cfi_def_cfa_offset 8
	retq
.Ltmp187:
.Lfunc_end68:
	.size	_ZN4core3ptr7mut_ptr31_$LT$impl$u20$$BP$mut$u20$T$GT$4addr17hbb254bfddd695fdcE, .Lfunc_end68-_ZN4core3ptr7mut_ptr31_$LT$impl$u20$$BP$mut$u20$T$GT$4addr17hbb254bfddd695fdcE
	.cfi_endproc

	.section	".text._ZN4core3ptr7mut_ptr31_$LT$impl$u20$$BP$mut$u20$T$GT$7is_null17h1b2023f4dbaf0a42E","ax",@progbits
	.p2align	4, 0x90
	.type	_ZN4core3ptr7mut_ptr31_$LT$impl$u20$$BP$mut$u20$T$GT$7is_null17h1b2023f4dbaf0a42E,@function
_ZN4core3ptr7mut_ptr31_$LT$impl$u20$$BP$mut$u20$T$GT$7is_null17h1b2023f4dbaf0a42E:
.Lfunc_begin69:
	.loc	22 35 0
	.cfi_startproc
	subq	$40, %rsp
	.cfi_def_cfa_offset 48
	movq	%rdi, 24(%rsp)
	movq	%rdi, 16(%rsp)
	movq	$0, 32(%rsp)
	movq	16(%rsp), %rdi
.Ltmp188:
	.loc	22 38 9 prologue_end
	xorl	%eax, %eax
	movl	%eax, %esi
	callq	_ZN4core3ptr7mut_ptr31_$LT$impl$u20$$BP$mut$u20$T$GT$13guaranteed_eq17hec5d28bacc0d87e2E
	movb	%al, 15(%rsp)
	.loc	22 0 9 is_stmt 0
	movb	15(%rsp), %al
	.loc	22 39 6 is_stmt 1
	andb	$1, %al
	movzbl	%al, %eax
	addq	$40, %rsp
	.cfi_def_cfa_offset 8
	retq
.Ltmp189:
.Lfunc_end69:
	.size	_ZN4core3ptr7mut_ptr31_$LT$impl$u20$$BP$mut$u20$T$GT$7is_null17h1b2023f4dbaf0a42E, .Lfunc_end69-_ZN4core3ptr7mut_ptr31_$LT$impl$u20$$BP$mut$u20$T$GT$7is_null17h1b2023f4dbaf0a42E
	.cfi_endproc

	.section	".text._ZN4core3ptr7mut_ptr31_$LT$impl$u20$$BP$mut$u20$T$GT$7is_null17hca2412bac0d5e5e1E","ax",@progbits
	.p2align	4, 0x90
	.type	_ZN4core3ptr7mut_ptr31_$LT$impl$u20$$BP$mut$u20$T$GT$7is_null17hca2412bac0d5e5e1E,@function
_ZN4core3ptr7mut_ptr31_$LT$impl$u20$$BP$mut$u20$T$GT$7is_null17hca2412bac0d5e5e1E:
.Lfunc_begin70:
	.loc	22 35 0
	.cfi_startproc
	subq	$40, %rsp
	.cfi_def_cfa_offset 48
	movq	%rdi, 16(%rsp)
	movq	%rdi, 24(%rsp)
	movq	$0, 32(%rsp)
	movq	16(%rsp), %rdi
.Ltmp190:
	.loc	22 38 9 prologue_end
	xorl	%eax, %eax
	movl	%eax, %esi
	callq	_ZN4core3ptr7mut_ptr31_$LT$impl$u20$$BP$mut$u20$T$GT$13guaranteed_eq17hec5d28bacc0d87e2E
	movb	%al, 15(%rsp)
	.loc	22 0 9 is_stmt 0
	movb	15(%rsp), %al
	.loc	22 39 6 is_stmt 1
	andb	$1, %al
	movzbl	%al, %eax
	addq	$40, %rsp
	.cfi_def_cfa_offset 8
	retq
.Ltmp191:
.Lfunc_end70:
	.size	_ZN4core3ptr7mut_ptr31_$LT$impl$u20$$BP$mut$u20$T$GT$7is_null17hca2412bac0d5e5e1E, .Lfunc_end70-_ZN4core3ptr7mut_ptr31_$LT$impl$u20$$BP$mut$u20$T$GT$7is_null17hca2412bac0d5e5e1E
	.cfi_endproc

	.section	".text._ZN4core3ptr7mut_ptr31_$LT$impl$u20$$BP$mut$u20$T$GT$7is_null17heb1dc4fefd62a5b0E","ax",@progbits
	.p2align	4, 0x90
	.type	_ZN4core3ptr7mut_ptr31_$LT$impl$u20$$BP$mut$u20$T$GT$7is_null17heb1dc4fefd62a5b0E,@function
_ZN4core3ptr7mut_ptr31_$LT$impl$u20$$BP$mut$u20$T$GT$7is_null17heb1dc4fefd62a5b0E:
.Lfunc_begin71:
	.loc	22 35 0
	.cfi_startproc
	subq	$40, %rsp
	.cfi_def_cfa_offset 48
	movq	%rdi, 16(%rsp)
	movq	%rdi, 24(%rsp)
	movq	$0, 32(%rsp)
	movq	16(%rsp), %rdi
.Ltmp192:
	.loc	22 38 9 prologue_end
	xorl	%eax, %eax
	movl	%eax, %esi
	callq	_ZN4core3ptr7mut_ptr31_$LT$impl$u20$$BP$mut$u20$T$GT$13guaranteed_eq17hec5d28bacc0d87e2E
	movb	%al, 15(%rsp)
	.loc	22 0 9 is_stmt 0
	movb	15(%rsp), %al
	.loc	22 39 6 is_stmt 1
	andb	$1, %al
	movzbl	%al, %eax
	addq	$40, %rsp
	.cfi_def_cfa_offset 8
	retq
.Ltmp193:
.Lfunc_end71:
	.size	_ZN4core3ptr7mut_ptr31_$LT$impl$u20$$BP$mut$u20$T$GT$7is_null17heb1dc4fefd62a5b0E, .Lfunc_end71-_ZN4core3ptr7mut_ptr31_$LT$impl$u20$$BP$mut$u20$T$GT$7is_null17heb1dc4fefd62a5b0E
	.cfi_endproc

	.section	".text._ZN4core3ptr85drop_in_place$LT$std..rt..lang_start$LT$$LP$$RP$$GT$..$u7b$$u7b$closure$u7d$$u7d$$GT$17h575932f951aa27baE","ax",@progbits
	.p2align	4, 0x90
	.type	_ZN4core3ptr85drop_in_place$LT$std..rt..lang_start$LT$$LP$$RP$$GT$..$u7b$$u7b$closure$u7d$$u7d$$GT$17h575932f951aa27baE,@function
_ZN4core3ptr85drop_in_place$LT$std..rt..lang_start$LT$$LP$$RP$$GT$..$u7b$$u7b$closure$u7d$$u7d$$GT$17h575932f951aa27baE:
.Lfunc_begin72:
	.loc	20 486 0
	.cfi_startproc
	pushq	%rax
	.cfi_def_cfa_offset 16
	movq	%rdi, (%rsp)
.Ltmp194:
	.loc	20 486 1 prologue_end
	popq	%rax
	.cfi_def_cfa_offset 8
	retq
.Ltmp195:
.Lfunc_end72:
	.size	_ZN4core3ptr85drop_in_place$LT$std..rt..lang_start$LT$$LP$$RP$$GT$..$u7b$$u7b$closure$u7d$$u7d$$GT$17h575932f951aa27baE, .Lfunc_end72-_ZN4core3ptr85drop_in_place$LT$std..rt..lang_start$LT$$LP$$RP$$GT$..$u7b$$u7b$closure$u7d$$u7d$$GT$17h575932f951aa27baE
	.cfi_endproc

	.section	.text._ZN4core3ptr8metadata14from_raw_parts17h0d314b651fccc47fE,"ax",@progbits
	.p2align	4, 0x90
	.type	_ZN4core3ptr8metadata14from_raw_parts17h0d314b651fccc47fE,@function
_ZN4core3ptr8metadata14from_raw_parts17h0d314b651fccc47fE:
.Lfunc_begin73:
	.file	23 "/builddir/build/BUILD/rustc-1.62.1-src/library/core/src/ptr/metadata.rs"
	.loc	23 110 0
	.cfi_startproc
	subq	$48, %rsp
	.cfi_def_cfa_offset 56
	movq	%rdi, 32(%rsp)
	movq	%rsi, 40(%rsp)
.Ltmp196:
	.loc	23 117 36 prologue_end
	movq	%rdi, 16(%rsp)
	movq	%rsi, 24(%rsp)
	.loc	23 117 14 is_stmt 0
	movq	16(%rsp), %rcx
	movq	24(%rsp), %rax
	movq	%rcx, (%rsp)
	movq	%rax, 8(%rsp)
	movq	(%rsp), %rax
	movq	8(%rsp), %rdx
	.loc	23 118 2 is_stmt 1
	addq	$48, %rsp
	.cfi_def_cfa_offset 8
	retq
.Ltmp197:
.Lfunc_end73:
	.size	_ZN4core3ptr8metadata14from_raw_parts17h0d314b651fccc47fE, .Lfunc_end73-_ZN4core3ptr8metadata14from_raw_parts17h0d314b651fccc47fE
	.cfi_endproc

	.section	.text._ZN4core3ptr8metadata14from_raw_parts17h7e1bf2506bb967ffE,"ax",@progbits
	.p2align	4, 0x90
	.type	_ZN4core3ptr8metadata14from_raw_parts17h7e1bf2506bb967ffE,@function
_ZN4core3ptr8metadata14from_raw_parts17h7e1bf2506bb967ffE:
.Lfunc_begin74:
	.loc	23 110 0
	.cfi_startproc
	subq	$48, %rsp
	.cfi_def_cfa_offset 56
	movq	%rdi, 32(%rsp)
	movq	%rsi, 40(%rsp)
.Ltmp198:
	.loc	23 117 36 prologue_end
	movq	%rdi, 16(%rsp)
	movq	%rsi, 24(%rsp)
	.loc	23 117 14 is_stmt 0
	movq	16(%rsp), %rcx
	movq	24(%rsp), %rax
	movq	%rcx, (%rsp)
	movq	%rax, 8(%rsp)
	movq	(%rsp), %rax
	movq	8(%rsp), %rdx
	.loc	23 118 2 is_stmt 1
	addq	$48, %rsp
	.cfi_def_cfa_offset 8
	retq
.Ltmp199:
.Lfunc_end74:
	.size	_ZN4core3ptr8metadata14from_raw_parts17h7e1bf2506bb967ffE, .Lfunc_end74-_ZN4core3ptr8metadata14from_raw_parts17h7e1bf2506bb967ffE
	.cfi_endproc

	.section	.text._ZN4core3ptr8metadata18from_raw_parts_mut17h1147f328d7de8ecaE,"ax",@progbits
	.p2align	4, 0x90
	.type	_ZN4core3ptr8metadata18from_raw_parts_mut17h1147f328d7de8ecaE,@function
_ZN4core3ptr8metadata18from_raw_parts_mut17h1147f328d7de8ecaE:
.Lfunc_begin75:
	.loc	23 127 0
	.cfi_startproc
	subq	$48, %rsp
	.cfi_def_cfa_offset 56
	movq	%rdi, 32(%rsp)
	movq	%rsi, 40(%rsp)
.Ltmp200:
	.loc	23 134 36 prologue_end
	movq	%rdi, 16(%rsp)
	movq	%rsi, 24(%rsp)
	.loc	23 134 14 is_stmt 0
	movq	16(%rsp), %rcx
	movq	24(%rsp), %rax
	movq	%rcx, (%rsp)
	movq	%rax, 8(%rsp)
	movq	(%rsp), %rax
	movq	8(%rsp), %rdx
	.loc	23 135 2 is_stmt 1
	addq	$48, %rsp
	.cfi_def_cfa_offset 8
	retq
.Ltmp201:
.Lfunc_end75:
	.size	_ZN4core3ptr8metadata18from_raw_parts_mut17h1147f328d7de8ecaE, .Lfunc_end75-_ZN4core3ptr8metadata18from_raw_parts_mut17h1147f328d7de8ecaE
	.cfi_endproc

	.section	.text._ZN4core3ptr8metadata18from_raw_parts_mut17h8cfb717287b9def4E,"ax",@progbits
	.p2align	4, 0x90
	.type	_ZN4core3ptr8metadata18from_raw_parts_mut17h8cfb717287b9def4E,@function
_ZN4core3ptr8metadata18from_raw_parts_mut17h8cfb717287b9def4E:
.Lfunc_begin76:
	.loc	23 127 0
	.cfi_startproc
	subq	$48, %rsp
	.cfi_def_cfa_offset 56
	movq	%rdi, 32(%rsp)
	movq	%rsi, 40(%rsp)
.Ltmp202:
	.loc	23 134 36 prologue_end
	movq	%rdi, 16(%rsp)
	movq	%rsi, 24(%rsp)
	.loc	23 134 14 is_stmt 0
	movq	16(%rsp), %rcx
	movq	24(%rsp), %rax
	movq	%rcx, (%rsp)
	movq	%rax, 8(%rsp)
	movq	(%rsp), %rax
	movq	8(%rsp), %rdx
	.loc	23 135 2 is_stmt 1
	addq	$48, %rsp
	.cfi_def_cfa_offset 8
	retq
.Ltmp203:
.Lfunc_end76:
	.size	_ZN4core3ptr8metadata18from_raw_parts_mut17h8cfb717287b9def4E, .Lfunc_end76-_ZN4core3ptr8metadata18from_raw_parts_mut17h8cfb717287b9def4E
	.cfi_endproc

	.section	".text._ZN4core3ptr8non_null16NonNull$LT$T$GT$13new_unchecked17h5f15a3ad47ed5c56E","ax",@progbits
	.p2align	4, 0x90
	.type	_ZN4core3ptr8non_null16NonNull$LT$T$GT$13new_unchecked17h5f15a3ad47ed5c56E,@function
_ZN4core3ptr8non_null16NonNull$LT$T$GT$13new_unchecked17h5f15a3ad47ed5c56E:
.Lfunc_begin77:
	.loc	2 196 0
	.cfi_startproc
	subq	$16, %rsp
	.cfi_def_cfa_offset 24
	movq	%rdi, 8(%rsp)
.Ltmp204:
	.loc	2 198 18 prologue_end
	movq	%rdi, (%rsp)
	.loc	2 199 6
	movq	(%rsp), %rax
	addq	$16, %rsp
	.cfi_def_cfa_offset 8
	retq
.Ltmp205:
.Lfunc_end77:
	.size	_ZN4core3ptr8non_null16NonNull$LT$T$GT$13new_unchecked17h5f15a3ad47ed5c56E, .Lfunc_end77-_ZN4core3ptr8non_null16NonNull$LT$T$GT$13new_unchecked17h5f15a3ad47ed5c56E
	.cfi_endproc

	.section	".text._ZN4core3ptr8non_null16NonNull$LT$T$GT$13new_unchecked17h63dd0df0de5418e5E","ax",@progbits
	.p2align	4, 0x90
	.type	_ZN4core3ptr8non_null16NonNull$LT$T$GT$13new_unchecked17h63dd0df0de5418e5E,@function
_ZN4core3ptr8non_null16NonNull$LT$T$GT$13new_unchecked17h63dd0df0de5418e5E:
.Lfunc_begin78:
	.loc	2 196 0
	.cfi_startproc
	subq	$16, %rsp
	.cfi_def_cfa_offset 24
	movq	%rdi, 8(%rsp)
.Ltmp206:
	.loc	2 198 18 prologue_end
	movq	%rdi, (%rsp)
	.loc	2 199 6
	movq	(%rsp), %rax
	addq	$16, %rsp
	.cfi_def_cfa_offset 8
	retq
.Ltmp207:
.Lfunc_end78:
	.size	_ZN4core3ptr8non_null16NonNull$LT$T$GT$13new_unchecked17h63dd0df0de5418e5E, .Lfunc_end78-_ZN4core3ptr8non_null16NonNull$LT$T$GT$13new_unchecked17h63dd0df0de5418e5E
	.cfi_endproc

	.section	".text._ZN4core3ptr8non_null16NonNull$LT$T$GT$13new_unchecked17h83a70d06719fc591E","ax",@progbits
	.p2align	4, 0x90
	.type	_ZN4core3ptr8non_null16NonNull$LT$T$GT$13new_unchecked17h83a70d06719fc591E,@function
_ZN4core3ptr8non_null16NonNull$LT$T$GT$13new_unchecked17h83a70d06719fc591E:
.Lfunc_begin79:
	.loc	2 196 0
	.cfi_startproc
	subq	$32, %rsp
	.cfi_def_cfa_offset 40
	movq	%rdi, 16(%rsp)
	movq	%rsi, 24(%rsp)
.Ltmp208:
	.loc	2 198 18 prologue_end
	movq	%rdi, (%rsp)
	movq	%rsi, 8(%rsp)
	.loc	2 199 6
	movq	(%rsp), %rax
	movq	8(%rsp), %rdx
	addq	$32, %rsp
	.cfi_def_cfa_offset 8
	retq
.Ltmp209:
.Lfunc_end79:
	.size	_ZN4core3ptr8non_null16NonNull$LT$T$GT$13new_unchecked17h83a70d06719fc591E, .Lfunc_end79-_ZN4core3ptr8non_null16NonNull$LT$T$GT$13new_unchecked17h83a70d06719fc591E
	.cfi_endproc

	.section	".text._ZN4core3ptr8non_null16NonNull$LT$T$GT$3new17hb4d4117fb33dfae6E","ax",@progbits
	.p2align	4, 0x90
	.type	_ZN4core3ptr8non_null16NonNull$LT$T$GT$3new17hb4d4117fb33dfae6E,@function
_ZN4core3ptr8non_null16NonNull$LT$T$GT$3new17hb4d4117fb33dfae6E:
.Lfunc_begin80:
	.loc	2 218 0
	.cfi_startproc
	subq	$40, %rsp
	.cfi_def_cfa_offset 48
	movq	%rdi, 8(%rsp)
	movq	%rdi, 32(%rsp)
.Ltmp210:
	.loc	2 219 13 prologue_end
	callq	_ZN4core3ptr7mut_ptr31_$LT$impl$u20$$BP$mut$u20$T$GT$7is_null17hca2412bac0d5e5e1E
	movb	%al, 23(%rsp)
	.loc	2 0 13 is_stmt 0
	movb	23(%rsp), %al
	.loc	2 219 12
	xorb	$-1, %al
	testb	$1, %al
	jne	.LBB80_3
	.loc	2 223 13 is_stmt 1
	movq	$0, 24(%rsp)
	.loc	2 219 9
	jmp	.LBB80_5
.LBB80_3:
	.loc	2 0 9 is_stmt 0
	movq	8(%rsp), %rdi
	.loc	2 221 27 is_stmt 1
	callq	_ZN4core3ptr8non_null16NonNull$LT$T$GT$13new_unchecked17h5f15a3ad47ed5c56E
	movq	%rax, (%rsp)
	.loc	2 0 27 is_stmt 0
	movq	(%rsp), %rax
	.loc	2 221 13
	movq	%rax, 24(%rsp)
.LBB80_5:
	.loc	2 225 6 is_stmt 1
	movq	24(%rsp), %rax
	addq	$40, %rsp
	.cfi_def_cfa_offset 8
	retq
.Ltmp211:
.Lfunc_end80:
	.size	_ZN4core3ptr8non_null16NonNull$LT$T$GT$3new17hb4d4117fb33dfae6E, .Lfunc_end80-_ZN4core3ptr8non_null16NonNull$LT$T$GT$3new17hb4d4117fb33dfae6E
	.cfi_endproc

	.section	".text._ZN4core3ptr8non_null16NonNull$LT$T$GT$4cast17h062a3f971617d55cE","ax",@progbits
	.p2align	4, 0x90
	.type	_ZN4core3ptr8non_null16NonNull$LT$T$GT$4cast17h062a3f971617d55cE,@function
_ZN4core3ptr8non_null16NonNull$LT$T$GT$4cast17h062a3f971617d55cE:
.Lfunc_begin81:
	.loc	2 453 0
	.cfi_startproc
	subq	$24, %rsp
	.cfi_def_cfa_offset 32
	movq	%rdi, 16(%rsp)
.Ltmp212:
	.loc	2 455 41 prologue_end
	callq	_ZN4core3ptr8non_null16NonNull$LT$T$GT$6as_ptr17h61ba236601e4b3abE
	movq	%rax, 8(%rsp)
	.loc	2 0 41 is_stmt 0
	movq	8(%rsp), %rdi
	.loc	2 455 18
	callq	_ZN4core3ptr8non_null16NonNull$LT$T$GT$13new_unchecked17h5f15a3ad47ed5c56E
	movq	%rax, (%rsp)
	.loc	2 0 18
	movq	(%rsp), %rax
	.loc	2 456 6 is_stmt 1
	addq	$24, %rsp
	.cfi_def_cfa_offset 8
	retq
.Ltmp213:
.Lfunc_end81:
	.size	_ZN4core3ptr8non_null16NonNull$LT$T$GT$4cast17h062a3f971617d55cE, .Lfunc_end81-_ZN4core3ptr8non_null16NonNull$LT$T$GT$4cast17h062a3f971617d55cE
	.cfi_endproc

	.section	".text._ZN4core3ptr8non_null16NonNull$LT$T$GT$4cast17h8cbdf65d67814f73E","ax",@progbits
	.p2align	4, 0x90
	.type	_ZN4core3ptr8non_null16NonNull$LT$T$GT$4cast17h8cbdf65d67814f73E,@function
_ZN4core3ptr8non_null16NonNull$LT$T$GT$4cast17h8cbdf65d67814f73E:
.Lfunc_begin82:
	.loc	2 453 0
	.cfi_startproc
	subq	$40, %rsp
	.cfi_def_cfa_offset 48
	movq	%rdi, 24(%rsp)
	movq	%rsi, 32(%rsp)
.Ltmp214:
	.loc	2 455 41 prologue_end
	callq	_ZN4core3ptr8non_null16NonNull$LT$T$GT$6as_ptr17h25f332141f2e18c6E
	movq	%rax, 16(%rsp)
	.loc	2 0 41 is_stmt 0
	movq	16(%rsp), %rdi
	.loc	2 455 18
	callq	_ZN4core3ptr8non_null16NonNull$LT$T$GT$13new_unchecked17h5f15a3ad47ed5c56E
	movq	%rax, 8(%rsp)
	.loc	2 0 18
	movq	8(%rsp), %rax
	.loc	2 456 6 is_stmt 1
	addq	$40, %rsp
	.cfi_def_cfa_offset 8
	retq
.Ltmp215:
.Lfunc_end82:
	.size	_ZN4core3ptr8non_null16NonNull$LT$T$GT$4cast17h8cbdf65d67814f73E, .Lfunc_end82-_ZN4core3ptr8non_null16NonNull$LT$T$GT$4cast17h8cbdf65d67814f73E
	.cfi_endproc

	.section	".text._ZN4core3ptr8non_null16NonNull$LT$T$GT$4cast17h9490e18eccccbc7aE","ax",@progbits
	.p2align	4, 0x90
	.type	_ZN4core3ptr8non_null16NonNull$LT$T$GT$4cast17h9490e18eccccbc7aE,@function
_ZN4core3ptr8non_null16NonNull$LT$T$GT$4cast17h9490e18eccccbc7aE:
.Lfunc_begin83:
	.loc	2 453 0
	.cfi_startproc
	subq	$24, %rsp
	.cfi_def_cfa_offset 32
	movq	%rdi, 16(%rsp)
.Ltmp216:
	.loc	2 455 41 prologue_end
	callq	_ZN4core3ptr8non_null16NonNull$LT$T$GT$6as_ptr17h3b4de8ffcf61c938E
	movq	%rax, 8(%rsp)
	.loc	2 0 41 is_stmt 0
	movq	8(%rsp), %rdi
	.loc	2 455 18
	callq	_ZN4core3ptr8non_null16NonNull$LT$T$GT$13new_unchecked17h5f15a3ad47ed5c56E
	movq	%rax, (%rsp)
	.loc	2 0 18
	movq	(%rsp), %rax
	.loc	2 456 6 is_stmt 1
	addq	$24, %rsp
	.cfi_def_cfa_offset 8
	retq
.Ltmp217:
.Lfunc_end83:
	.size	_ZN4core3ptr8non_null16NonNull$LT$T$GT$4cast17h9490e18eccccbc7aE, .Lfunc_end83-_ZN4core3ptr8non_null16NonNull$LT$T$GT$4cast17h9490e18eccccbc7aE
	.cfi_endproc

	.section	".text._ZN4core3ptr8non_null16NonNull$LT$T$GT$4cast17hd0c403b7ab36e22cE","ax",@progbits
	.p2align	4, 0x90
	.type	_ZN4core3ptr8non_null16NonNull$LT$T$GT$4cast17hd0c403b7ab36e22cE,@function
_ZN4core3ptr8non_null16NonNull$LT$T$GT$4cast17hd0c403b7ab36e22cE:
.Lfunc_begin84:
	.loc	2 453 0
	.cfi_startproc
	subq	$40, %rsp
	.cfi_def_cfa_offset 48
	movq	%rdi, 24(%rsp)
	movq	%rsi, 32(%rsp)
.Ltmp218:
	.loc	2 455 41 prologue_end
	callq	_ZN4core3ptr8non_null16NonNull$LT$T$GT$6as_ptr17h49dd076789c93e62E
	movq	%rax, 16(%rsp)
	.loc	2 0 41 is_stmt 0
	movq	16(%rsp), %rdi
	.loc	2 455 18
	callq	_ZN4core3ptr8non_null16NonNull$LT$T$GT$13new_unchecked17h5f15a3ad47ed5c56E
	movq	%rax, 8(%rsp)
	.loc	2 0 18
	movq	8(%rsp), %rax
	.loc	2 456 6 is_stmt 1
	addq	$40, %rsp
	.cfi_def_cfa_offset 8
	retq
.Ltmp219:
.Lfunc_end84:
	.size	_ZN4core3ptr8non_null16NonNull$LT$T$GT$4cast17hd0c403b7ab36e22cE, .Lfunc_end84-_ZN4core3ptr8non_null16NonNull$LT$T$GT$4cast17hd0c403b7ab36e22cE
	.cfi_endproc

	.section	".text._ZN4core3ptr8non_null16NonNull$LT$T$GT$4cast17hf6cad42919946c7aE","ax",@progbits
	.p2align	4, 0x90
	.type	_ZN4core3ptr8non_null16NonNull$LT$T$GT$4cast17hf6cad42919946c7aE,@function
_ZN4core3ptr8non_null16NonNull$LT$T$GT$4cast17hf6cad42919946c7aE:
.Lfunc_begin85:
	.loc	2 453 0
	.cfi_startproc
	subq	$24, %rsp
	.cfi_def_cfa_offset 32
	movq	%rdi, 16(%rsp)
.Ltmp220:
	.loc	2 455 41 prologue_end
	callq	_ZN4core3ptr8non_null16NonNull$LT$T$GT$6as_ptr17h808fdef249a03bf0E
	movq	%rax, 8(%rsp)
	.loc	2 0 41 is_stmt 0
	movq	8(%rsp), %rdi
	.loc	2 455 18
	callq	_ZN4core3ptr8non_null16NonNull$LT$T$GT$13new_unchecked17h5f15a3ad47ed5c56E
	movq	%rax, (%rsp)
	.loc	2 0 18
	movq	(%rsp), %rax
	.loc	2 456 6 is_stmt 1
	addq	$24, %rsp
	.cfi_def_cfa_offset 8
	retq
.Ltmp221:
.Lfunc_end85:
	.size	_ZN4core3ptr8non_null16NonNull$LT$T$GT$4cast17hf6cad42919946c7aE, .Lfunc_end85-_ZN4core3ptr8non_null16NonNull$LT$T$GT$4cast17hf6cad42919946c7aE
	.cfi_endproc

	.section	".text._ZN4core3ptr8non_null16NonNull$LT$T$GT$6as_ptr17h25f332141f2e18c6E","ax",@progbits
	.p2align	4, 0x90
	.type	_ZN4core3ptr8non_null16NonNull$LT$T$GT$6as_ptr17h25f332141f2e18c6E,@function
_ZN4core3ptr8non_null16NonNull$LT$T$GT$6as_ptr17h25f332141f2e18c6E:
.Lfunc_begin86:
	.loc	2 330 0
	.cfi_startproc
	subq	$16, %rsp
	.cfi_def_cfa_offset 24
	movq	%rsi, %rdx
	movq	%rdi, %rax
	movq	%rax, (%rsp)
	movq	%rdx, 8(%rsp)
.Ltmp222:
	.loc	2 332 6 prologue_end
	addq	$16, %rsp
	.cfi_def_cfa_offset 8
	retq
.Ltmp223:
.Lfunc_end86:
	.size	_ZN4core3ptr8non_null16NonNull$LT$T$GT$6as_ptr17h25f332141f2e18c6E, .Lfunc_end86-_ZN4core3ptr8non_null16NonNull$LT$T$GT$6as_ptr17h25f332141f2e18c6E
	.cfi_endproc

	.section	".text._ZN4core3ptr8non_null16NonNull$LT$T$GT$6as_ptr17h3b4de8ffcf61c938E","ax",@progbits
	.p2align	4, 0x90
	.type	_ZN4core3ptr8non_null16NonNull$LT$T$GT$6as_ptr17h3b4de8ffcf61c938E,@function
_ZN4core3ptr8non_null16NonNull$LT$T$GT$6as_ptr17h3b4de8ffcf61c938E:
.Lfunc_begin87:
	.loc	2 330 0
	.cfi_startproc
	pushq	%rax
	.cfi_def_cfa_offset 16
	movq	%rdi, %rax
	movq	%rax, (%rsp)
.Ltmp224:
	.loc	2 332 6 prologue_end
	popq	%rcx
	.cfi_def_cfa_offset 8
	retq
.Ltmp225:
.Lfunc_end87:
	.size	_ZN4core3ptr8non_null16NonNull$LT$T$GT$6as_ptr17h3b4de8ffcf61c938E, .Lfunc_end87-_ZN4core3ptr8non_null16NonNull$LT$T$GT$6as_ptr17h3b4de8ffcf61c938E
	.cfi_endproc

	.section	".text._ZN4core3ptr8non_null16NonNull$LT$T$GT$6as_ptr17h49dd076789c93e62E","ax",@progbits
	.p2align	4, 0x90
	.type	_ZN4core3ptr8non_null16NonNull$LT$T$GT$6as_ptr17h49dd076789c93e62E,@function
_ZN4core3ptr8non_null16NonNull$LT$T$GT$6as_ptr17h49dd076789c93e62E:
.Lfunc_begin88:
	.loc	2 330 0
	.cfi_startproc
	subq	$16, %rsp
	.cfi_def_cfa_offset 24
	movq	%rsi, %rdx
	movq	%rdi, %rax
	movq	%rax, (%rsp)
	movq	%rdx, 8(%rsp)
.Ltmp226:
	.loc	2 332 6 prologue_end
	addq	$16, %rsp
	.cfi_def_cfa_offset 8
	retq
.Ltmp227:
.Lfunc_end88:
	.size	_ZN4core3ptr8non_null16NonNull$LT$T$GT$6as_ptr17h49dd076789c93e62E, .Lfunc_end88-_ZN4core3ptr8non_null16NonNull$LT$T$GT$6as_ptr17h49dd076789c93e62E
	.cfi_endproc

	.section	".text._ZN4core3ptr8non_null16NonNull$LT$T$GT$6as_ptr17h61ba236601e4b3abE","ax",@progbits
	.p2align	4, 0x90
	.type	_ZN4core3ptr8non_null16NonNull$LT$T$GT$6as_ptr17h61ba236601e4b3abE,@function
_ZN4core3ptr8non_null16NonNull$LT$T$GT$6as_ptr17h61ba236601e4b3abE:
.Lfunc_begin89:
	.loc	2 330 0
	.cfi_startproc
	pushq	%rax
	.cfi_def_cfa_offset 16
	movq	%rdi, %rax
	movq	%rax, (%rsp)
.Ltmp228:
	.loc	2 332 6 prologue_end
	popq	%rcx
	.cfi_def_cfa_offset 8
	retq
.Ltmp229:
.Lfunc_end89:
	.size	_ZN4core3ptr8non_null16NonNull$LT$T$GT$6as_ptr17h61ba236601e4b3abE, .Lfunc_end89-_ZN4core3ptr8non_null16NonNull$LT$T$GT$6as_ptr17h61ba236601e4b3abE
	.cfi_endproc

	.section	".text._ZN4core3ptr8non_null16NonNull$LT$T$GT$6as_ptr17h808fdef249a03bf0E","ax",@progbits
	.p2align	4, 0x90
	.type	_ZN4core3ptr8non_null16NonNull$LT$T$GT$6as_ptr17h808fdef249a03bf0E,@function
_ZN4core3ptr8non_null16NonNull$LT$T$GT$6as_ptr17h808fdef249a03bf0E:
.Lfunc_begin90:
	.loc	2 330 0
	.cfi_startproc
	pushq	%rax
	.cfi_def_cfa_offset 16
	movq	%rdi, %rax
	movq	%rax, (%rsp)
.Ltmp230:
	.loc	2 332 6 prologue_end
	popq	%rcx
	.cfi_def_cfa_offset 8
	retq
.Ltmp231:
.Lfunc_end90:
	.size	_ZN4core3ptr8non_null16NonNull$LT$T$GT$6as_ptr17h808fdef249a03bf0E, .Lfunc_end90-_ZN4core3ptr8non_null16NonNull$LT$T$GT$6as_ptr17h808fdef249a03bf0E
	.cfi_endproc

	.section	".text._ZN4core3ptr8non_null16NonNull$LT$T$GT$6as_ref17h8bb3688246d0c2a1E","ax",@progbits
	.p2align	4, 0x90
	.type	_ZN4core3ptr8non_null16NonNull$LT$T$GT$6as_ref17h8bb3688246d0c2a1E,@function
_ZN4core3ptr8non_null16NonNull$LT$T$GT$6as_ref17h8bb3688246d0c2a1E:
.Lfunc_begin91:
	.loc	2 378 0
	.cfi_startproc
	subq	$24, %rsp
	.cfi_def_cfa_offset 32
	movq	%rdi, 16(%rsp)
.Ltmp232:
	.loc	2 381 20 prologue_end
	movq	(%rdi), %rdi
	callq	_ZN4core3ptr8non_null16NonNull$LT$T$GT$6as_ptr17h3b4de8ffcf61c938E
	movq	%rax, 8(%rsp)
	.loc	2 0 20 is_stmt 0
	movq	8(%rsp), %rax
	.loc	2 382 6 is_stmt 1
	addq	$24, %rsp
	.cfi_def_cfa_offset 8
	retq
.Ltmp233:
.Lfunc_end91:
	.size	_ZN4core3ptr8non_null16NonNull$LT$T$GT$6as_ref17h8bb3688246d0c2a1E, .Lfunc_end91-_ZN4core3ptr8non_null16NonNull$LT$T$GT$6as_ref17h8bb3688246d0c2a1E
	.cfi_endproc

	.section	".text._ZN4core3ptr8non_null16NonNull$LT$T$GT$6as_ref17h9e996e71486d9d7eE","ax",@progbits
	.p2align	4, 0x90
	.type	_ZN4core3ptr8non_null16NonNull$LT$T$GT$6as_ref17h9e996e71486d9d7eE,@function
_ZN4core3ptr8non_null16NonNull$LT$T$GT$6as_ref17h9e996e71486d9d7eE:
.Lfunc_begin92:
	.loc	2 378 0
	.cfi_startproc
	subq	$24, %rsp
	.cfi_def_cfa_offset 32
	movq	%rdi, %rax
	movq	%rax, 16(%rsp)
.Ltmp234:
	.loc	2 381 20 prologue_end
	movq	(%rax), %rdi
	movq	8(%rax), %rsi
	callq	_ZN4core3ptr8non_null16NonNull$LT$T$GT$6as_ptr17h49dd076789c93e62E
	movq	%rax, (%rsp)
	movq	%rdx, 8(%rsp)
	.loc	2 0 20 is_stmt 0
	movq	8(%rsp), %rdx
	movq	(%rsp), %rax
	.loc	2 382 6 is_stmt 1
	addq	$24, %rsp
	.cfi_def_cfa_offset 8
	retq
.Ltmp235:
.Lfunc_end92:
	.size	_ZN4core3ptr8non_null16NonNull$LT$T$GT$6as_ref17h9e996e71486d9d7eE, .Lfunc_end92-_ZN4core3ptr8non_null16NonNull$LT$T$GT$6as_ref17h9e996e71486d9d7eE
	.cfi_endproc

	.section	".text._ZN4core3ptr8non_null16NonNull$LT$T$GT$8dangling17hc212c4044d0d772bE","ax",@progbits
	.p2align	4, 0x90
	.type	_ZN4core3ptr8non_null16NonNull$LT$T$GT$8dangling17hc212c4044d0d772bE,@function
_ZN4core3ptr8non_null16NonNull$LT$T$GT$8dangling17hc212c4044d0d772bE:
.Lfunc_begin93:
	.loc	2 90 0
	.cfi_startproc
	subq	$24, %rsp
	.cfi_def_cfa_offset 32
	movq	$1, 16(%rsp)
.Ltmp236:
	.loc	2 95 23 prologue_end
	movl	$1, %eax
	movq	%rax, 8(%rsp)
.Ltmp237:
	.loc	2 96 13
	movl	$1, %edi
	callq	_ZN4core3ptr8non_null16NonNull$LT$T$GT$13new_unchecked17h5f15a3ad47ed5c56E
	movq	%rax, (%rsp)
.Ltmp238:
	.loc	2 0 13 is_stmt 0
	movq	(%rsp), %rax
	.loc	2 98 6 is_stmt 1
	addq	$24, %rsp
	.cfi_def_cfa_offset 8
	retq
.Ltmp239:
.Lfunc_end93:
	.size	_ZN4core3ptr8non_null16NonNull$LT$T$GT$8dangling17hc212c4044d0d772bE, .Lfunc_end93-_ZN4core3ptr8non_null16NonNull$LT$T$GT$8dangling17hc212c4044d0d772bE
	.cfi_endproc

	.section	".text._ZN4core3ptr8non_null26NonNull$LT$$u5b$T$u5d$$GT$10as_mut_ptr17h745fa8cc78fc832cE","ax",@progbits
	.p2align	4, 0x90
	.type	_ZN4core3ptr8non_null26NonNull$LT$$u5b$T$u5d$$GT$10as_mut_ptr17h745fa8cc78fc832cE,@function
_ZN4core3ptr8non_null26NonNull$LT$$u5b$T$u5d$$GT$10as_mut_ptr17h745fa8cc78fc832cE:
.Lfunc_begin94:
	.loc	2 551 0
	.cfi_startproc
	subq	$40, %rsp
	.cfi_def_cfa_offset 48
	movq	%rdi, 24(%rsp)
	movq	%rsi, 32(%rsp)
.Ltmp240:
	.loc	2 552 9 prologue_end
	callq	_ZN4core3ptr8non_null26NonNull$LT$$u5b$T$u5d$$GT$15as_non_null_ptr17h6e67b90a1900660dE
	movq	%rax, 16(%rsp)
	.loc	2 0 9 is_stmt 0
	movq	16(%rsp), %rdi
	.loc	2 552 9
	callq	_ZN4core3ptr8non_null16NonNull$LT$T$GT$6as_ptr17h808fdef249a03bf0E
	movq	%rax, 8(%rsp)
	.loc	2 0 9
	movq	8(%rsp), %rax
	.loc	2 553 6 is_stmt 1
	addq	$40, %rsp
	.cfi_def_cfa_offset 8
	retq
.Ltmp241:
.Lfunc_end94:
	.size	_ZN4core3ptr8non_null26NonNull$LT$$u5b$T$u5d$$GT$10as_mut_ptr17h745fa8cc78fc832cE, .Lfunc_end94-_ZN4core3ptr8non_null26NonNull$LT$$u5b$T$u5d$$GT$10as_mut_ptr17h745fa8cc78fc832cE
	.cfi_endproc

	.section	".text._ZN4core3ptr8non_null26NonNull$LT$$u5b$T$u5d$$GT$15as_non_null_ptr17h6e67b90a1900660dE","ax",@progbits
	.p2align	4, 0x90
	.type	_ZN4core3ptr8non_null26NonNull$LT$$u5b$T$u5d$$GT$15as_non_null_ptr17h6e67b90a1900660dE,@function
_ZN4core3ptr8non_null26NonNull$LT$$u5b$T$u5d$$GT$15as_non_null_ptr17h6e67b90a1900660dE:
.Lfunc_begin95:
	.loc	2 531 0
	.cfi_startproc
	subq	$72, %rsp
	.cfi_def_cfa_offset 80
	movq	%rdi, 40(%rsp)
	movq	%rsi, 48(%rsp)
.Ltmp242:
	.loc	2 533 41 prologue_end
	callq	_ZN4core3ptr8non_null16NonNull$LT$T$GT$6as_ptr17h25f332141f2e18c6E
	movq	%rax, 24(%rsp)
	movq	%rdx, 32(%rsp)
	.loc	2 0 41 is_stmt 0
	movq	24(%rsp), %rax
	movq	32(%rsp), %rcx
	movq	%rax, 56(%rsp)
	movq	%rcx, 64(%rsp)
	movq	%rax, 16(%rsp)
	movq	16(%rsp), %rdi
	.loc	2 533 18
	callq	_ZN4core3ptr8non_null16NonNull$LT$T$GT$13new_unchecked17h5f15a3ad47ed5c56E
	movq	%rax, 8(%rsp)
	.loc	2 0 18
	movq	8(%rsp), %rax
	.loc	2 534 6 is_stmt 1
	addq	$72, %rsp
	.cfi_def_cfa_offset 8
	retq
.Ltmp243:
.Lfunc_end95:
	.size	_ZN4core3ptr8non_null26NonNull$LT$$u5b$T$u5d$$GT$15as_non_null_ptr17h6e67b90a1900660dE, .Lfunc_end95-_ZN4core3ptr8non_null26NonNull$LT$$u5b$T$u5d$$GT$15as_non_null_ptr17h6e67b90a1900660dE
	.cfi_endproc

	.section	".text._ZN4core3ptr8non_null26NonNull$LT$$u5b$T$u5d$$GT$20slice_from_raw_parts17h257026cbcce3ffa4E","ax",@progbits
	.p2align	4, 0x90
	.type	_ZN4core3ptr8non_null26NonNull$LT$$u5b$T$u5d$$GT$20slice_from_raw_parts17h257026cbcce3ffa4E,@function
_ZN4core3ptr8non_null26NonNull$LT$$u5b$T$u5d$$GT$20slice_from_raw_parts17h257026cbcce3ffa4E:
.Lfunc_begin96:
	.loc	2 487 0
	.cfi_startproc
	subq	$72, %rsp
	.cfi_def_cfa_offset 80
	movq	%rsi, 40(%rsp)
	movq	%rdi, 56(%rsp)
	movq	%rsi, 64(%rsp)
.Ltmp244:
	.loc	2 489 70 prologue_end
	callq	_ZN4core3ptr8non_null16NonNull$LT$T$GT$6as_ptr17h808fdef249a03bf0E
	movq	%rax, 48(%rsp)
	.loc	2 0 70 is_stmt 0
	movq	40(%rsp), %rsi
	movq	48(%rsp), %rdi
	.loc	2 489 38
	callq	_ZN4core3ptr24slice_from_raw_parts_mut17hf1df7018f9d991f6E
	movq	%rax, 24(%rsp)
	movq	%rdx, 32(%rsp)
	.loc	2 0 38
	movq	32(%rsp), %rsi
	movq	24(%rsp), %rdi
	.loc	2 489 18
	callq	_ZN4core3ptr8non_null16NonNull$LT$T$GT$13new_unchecked17h83a70d06719fc591E
	movq	%rax, 8(%rsp)
	movq	%rdx, 16(%rsp)
	.loc	2 0 18
	movq	16(%rsp), %rdx
	movq	8(%rsp), %rax
	.loc	2 490 6 is_stmt 1
	addq	$72, %rsp
	.cfi_def_cfa_offset 8
	retq
.Ltmp245:
.Lfunc_end96:
	.size	_ZN4core3ptr8non_null26NonNull$LT$$u5b$T$u5d$$GT$20slice_from_raw_parts17h257026cbcce3ffa4E, .Lfunc_end96-_ZN4core3ptr8non_null26NonNull$LT$$u5b$T$u5d$$GT$20slice_from_raw_parts17h257026cbcce3ffa4E
	.cfi_endproc

	.section	".text._ZN4core3ptr9const_ptr33_$LT$impl$u20$$BP$const$u20$T$GT$13guaranteed_eq17heda2558ee9ca7cfcE","ax",@progbits
	.p2align	4, 0x90
	.type	_ZN4core3ptr9const_ptr33_$LT$impl$u20$$BP$const$u20$T$GT$13guaranteed_eq17heda2558ee9ca7cfcE,@function
_ZN4core3ptr9const_ptr33_$LT$impl$u20$$BP$const$u20$T$GT$13guaranteed_eq17heda2558ee9ca7cfcE:
.Lfunc_begin97:
	.file	24 "/builddir/build/BUILD/rustc-1.62.1-src/library/core/src/ptr/const_ptr.rs"
	.loc	24 715 0
	.cfi_startproc
	subq	$32, %rsp
	.cfi_def_cfa_offset 40
	movq	%rdi, 8(%rsp)
	movq	%rsi, 16(%rsp)
.Ltmp246:
	.loc	24 719 9 prologue_end
	cmpq	%rsi, %rdi
	sete	%al
	andb	$1, %al
	movb	%al, 31(%rsp)
	movb	31(%rsp), %al
	movb	%al, 7(%rsp)
	.loc	24 0 9 is_stmt 0
	movb	7(%rsp), %al
	.loc	24 720 6 is_stmt 1
	andb	$1, %al
	movzbl	%al, %eax
	addq	$32, %rsp
	.cfi_def_cfa_offset 8
	retq
.Ltmp247:
.Lfunc_end97:
	.size	_ZN4core3ptr9const_ptr33_$LT$impl$u20$$BP$const$u20$T$GT$13guaranteed_eq17heda2558ee9ca7cfcE, .Lfunc_end97-_ZN4core3ptr9const_ptr33_$LT$impl$u20$$BP$const$u20$T$GT$13guaranteed_eq17heda2558ee9ca7cfcE
	.cfi_endproc

	.section	".text._ZN4core3ptr9const_ptr33_$LT$impl$u20$$BP$const$u20$T$GT$22copy_to_nonoverlapping17h1d1c97f7c71e1510E","ax",@progbits
	.p2align	4, 0x90
	.type	_ZN4core3ptr9const_ptr33_$LT$impl$u20$$BP$const$u20$T$GT$22copy_to_nonoverlapping17h1d1c97f7c71e1510E,@function
_ZN4core3ptr9const_ptr33_$LT$impl$u20$$BP$const$u20$T$GT$22copy_to_nonoverlapping17h1d1c97f7c71e1510E:
.Lfunc_begin98:
	.loc	24 1090 0
	.cfi_startproc
	subq	$24, %rsp
	.cfi_def_cfa_offset 32
	movq	%rdi, (%rsp)
	movq	%rsi, 8(%rsp)
	movq	%rdx, 16(%rsp)
.Ltmp248:
	.loc	24 1095 18 prologue_end
	callq	_ZN4core10intrinsics19copy_nonoverlapping17h3b062fee7f2ce324E
	.loc	24 1096 6
	addq	$24, %rsp
	.cfi_def_cfa_offset 8
	retq
.Ltmp249:
.Lfunc_end98:
	.size	_ZN4core3ptr9const_ptr33_$LT$impl$u20$$BP$const$u20$T$GT$22copy_to_nonoverlapping17h1d1c97f7c71e1510E, .Lfunc_end98-_ZN4core3ptr9const_ptr33_$LT$impl$u20$$BP$const$u20$T$GT$22copy_to_nonoverlapping17h1d1c97f7c71e1510E
	.cfi_endproc

	.section	".text._ZN4core3ptr9const_ptr33_$LT$impl$u20$$BP$const$u20$T$GT$4addr17hecfd37770e54b03aE","ax",@progbits
	.p2align	4, 0x90
	.type	_ZN4core3ptr9const_ptr33_$LT$impl$u20$$BP$const$u20$T$GT$4addr17hecfd37770e54b03aE,@function
_ZN4core3ptr9const_ptr33_$LT$impl$u20$$BP$const$u20$T$GT$4addr17hecfd37770e54b03aE:
.Lfunc_begin99:
	.loc	24 178 0
	.cfi_startproc
	pushq	%rax
	.cfi_def_cfa_offset 16
	movq	%rdi, %rax
	movq	%rax, (%rsp)
.Ltmp250:
	.loc	24 184 6 prologue_end
	popq	%rcx
	.cfi_def_cfa_offset 8
	retq
.Ltmp251:
.Lfunc_end99:
	.size	_ZN4core3ptr9const_ptr33_$LT$impl$u20$$BP$const$u20$T$GT$4addr17hecfd37770e54b03aE, .Lfunc_end99-_ZN4core3ptr9const_ptr33_$LT$impl$u20$$BP$const$u20$T$GT$4addr17hecfd37770e54b03aE
	.cfi_endproc

	.section	".text._ZN4core3ptr9const_ptr33_$LT$impl$u20$$BP$const$u20$T$GT$4cast17h859bf25f9e8128dfE","ax",@progbits
	.p2align	4, 0x90
	.type	_ZN4core3ptr9const_ptr33_$LT$impl$u20$$BP$const$u20$T$GT$4cast17h859bf25f9e8128dfE,@function
_ZN4core3ptr9const_ptr33_$LT$impl$u20$$BP$const$u20$T$GT$4cast17h859bf25f9e8128dfE:
.Lfunc_begin100:
	.loc	24 46 0
	.cfi_startproc
	pushq	%rax
	.cfi_def_cfa_offset 16
	movq	%rdi, %rax
	movq	%rax, (%rsp)
.Ltmp252:
	.loc	24 48 6 prologue_end
	popq	%rcx
	.cfi_def_cfa_offset 8
	retq
.Ltmp253:
.Lfunc_end100:
	.size	_ZN4core3ptr9const_ptr33_$LT$impl$u20$$BP$const$u20$T$GT$4cast17h859bf25f9e8128dfE, .Lfunc_end100-_ZN4core3ptr9const_ptr33_$LT$impl$u20$$BP$const$u20$T$GT$4cast17h859bf25f9e8128dfE
	.cfi_endproc

	.section	".text._ZN4core3ptr9const_ptr33_$LT$impl$u20$$BP$const$u20$T$GT$4cast17hf999bc75c4b64a53E","ax",@progbits
	.p2align	4, 0x90
	.type	_ZN4core3ptr9const_ptr33_$LT$impl$u20$$BP$const$u20$T$GT$4cast17hf999bc75c4b64a53E,@function
_ZN4core3ptr9const_ptr33_$LT$impl$u20$$BP$const$u20$T$GT$4cast17hf999bc75c4b64a53E:
.Lfunc_begin101:
	.loc	24 46 0
	.cfi_startproc
	pushq	%rax
	.cfi_def_cfa_offset 16
	movq	%rdi, %rax
	movq	%rax, (%rsp)
.Ltmp254:
	.loc	24 48 6 prologue_end
	popq	%rcx
	.cfi_def_cfa_offset 8
	retq
.Ltmp255:
.Lfunc_end101:
	.size	_ZN4core3ptr9const_ptr33_$LT$impl$u20$$BP$const$u20$T$GT$4cast17hf999bc75c4b64a53E, .Lfunc_end101-_ZN4core3ptr9const_ptr33_$LT$impl$u20$$BP$const$u20$T$GT$4cast17hf999bc75c4b64a53E
	.cfi_endproc

	.section	".text._ZN4core3ptr9const_ptr33_$LT$impl$u20$$BP$const$u20$T$GT$7is_null17h40b7b9de45742397E","ax",@progbits
	.p2align	4, 0x90
	.type	_ZN4core3ptr9const_ptr33_$LT$impl$u20$$BP$const$u20$T$GT$7is_null17h40b7b9de45742397E,@function
_ZN4core3ptr9const_ptr33_$LT$impl$u20$$BP$const$u20$T$GT$7is_null17h40b7b9de45742397E:
.Lfunc_begin102:
	.loc	24 36 0
	.cfi_startproc
	subq	$40, %rsp
	.cfi_def_cfa_offset 48
	movq	%rdi, 16(%rsp)
	movq	%rdi, 24(%rsp)
	movq	$0, 32(%rsp)
	movq	16(%rsp), %rdi
.Ltmp256:
	.loc	24 39 9 prologue_end
	xorl	%eax, %eax
	movl	%eax, %esi
	callq	_ZN4core3ptr9const_ptr33_$LT$impl$u20$$BP$const$u20$T$GT$13guaranteed_eq17heda2558ee9ca7cfcE
	movb	%al, 15(%rsp)
	.loc	24 0 9 is_stmt 0
	movb	15(%rsp), %al
	.loc	24 40 6 is_stmt 1
	andb	$1, %al
	movzbl	%al, %eax
	addq	$40, %rsp
	.cfi_def_cfa_offset 8
	retq
.Ltmp257:
.Lfunc_end102:
	.size	_ZN4core3ptr9const_ptr33_$LT$impl$u20$$BP$const$u20$T$GT$7is_null17h40b7b9de45742397E, .Lfunc_end102-_ZN4core3ptr9const_ptr33_$LT$impl$u20$$BP$const$u20$T$GT$7is_null17h40b7b9de45742397E
	.cfi_endproc

	.section	".text._ZN4core3str21_$LT$impl$u20$str$GT$6as_ptr17hfa896cd7edcc3cbeE","ax",@progbits
	.p2align	4, 0x90
	.type	_ZN4core3str21_$LT$impl$u20$str$GT$6as_ptr17hfa896cd7edcc3cbeE,@function
_ZN4core3str21_$LT$impl$u20$str$GT$6as_ptr17hfa896cd7edcc3cbeE:
.Lfunc_begin103:
	.loc	10 398 0
	.cfi_startproc
	subq	$16, %rsp
	.cfi_def_cfa_offset 24
	movq	%rdi, %rax
	movq	%rax, (%rsp)
	movq	%rsi, 8(%rsp)
.Ltmp258:
	.loc	10 400 6 prologue_end
	addq	$16, %rsp
	.cfi_def_cfa_offset 8
	retq
.Ltmp259:
.Lfunc_end103:
	.size	_ZN4core3str21_$LT$impl$u20$str$GT$6as_ptr17hfa896cd7edcc3cbeE, .Lfunc_end103-_ZN4core3str21_$LT$impl$u20$str$GT$6as_ptr17hfa896cd7edcc3cbeE
	.cfi_endproc

	.section	.text._ZN4core3str8converts19from_utf8_unchecked17h58ac3ae304cbcbceE,"ax",@progbits
	.p2align	4, 0x90
	.type	_ZN4core3str8converts19from_utf8_unchecked17h58ac3ae304cbcbceE,@function
_ZN4core3str8converts19from_utf8_unchecked17h58ac3ae304cbcbceE:
.Lfunc_begin104:
	.file	25 "/builddir/build/BUILD/rustc-1.62.1-src/library/core/src/str/converts.rs"
	.loc	25 169 0
	.cfi_startproc
	subq	$48, %rsp
	.cfi_def_cfa_offset 56
	movq	%rdi, 16(%rsp)
	movq	%rsi, 24(%rsp)
.Ltmp260:
	.loc	25 172 14 prologue_end
	movq	%rdi, 32(%rsp)
	movq	%rsi, 40(%rsp)
	movq	32(%rsp), %rax
	movq	%rax, (%rsp)
	movq	40(%rsp), %rax
	movq	%rax, 8(%rsp)
	.loc	25 0 14 is_stmt 0
	movq	8(%rsp), %rdx
	movq	(%rsp), %rax
	.loc	25 173 2 is_stmt 1
	addq	$48, %rsp
	.cfi_def_cfa_offset 8
	retq
.Ltmp261:
.Lfunc_end104:
	.size	_ZN4core3str8converts19from_utf8_unchecked17h58ac3ae304cbcbceE, .Lfunc_end104-_ZN4core3str8converts19from_utf8_unchecked17h58ac3ae304cbcbceE
	.cfi_endproc

	.section	.text._ZN4core4hint21unreachable_unchecked17hc4e752fcd4dd2116E,"ax",@progbits
	.p2align	4, 0x90
	.type	_ZN4core4hint21unreachable_unchecked17hc4e752fcd4dd2116E,@function
_ZN4core4hint21unreachable_unchecked17hc4e752fcd4dd2116E:
.Lfunc_begin105:
	.file	26 "/builddir/build/BUILD/rustc-1.62.1-src/library/core/src/hint.rs"
	.loc	26 99 0
	.cfi_startproc
	.loc	26 102 14 prologue_end
	ud2
.Ltmp262:
.Lfunc_end105:
	.size	_ZN4core4hint21unreachable_unchecked17hc4e752fcd4dd2116E, .Lfunc_end105-_ZN4core4hint21unreachable_unchecked17hc4e752fcd4dd2116E
	.cfi_endproc

	.section	.text._ZN4core4hint9black_box17h8a23f24134229404E,"ax",@progbits
	.p2align	4, 0x90
	.type	_ZN4core4hint9black_box17h8a23f24134229404E,@function
_ZN4core4hint9black_box17h8a23f24134229404E:
.Lfunc_begin106:
	.loc	26 224 0
	.cfi_startproc
	pushq	%rax
	.cfi_def_cfa_offset 16
.Ltmp263:
	.loc	26 225 5 prologue_end
	#APP
	#NO_APP
	.loc	26 226 2
	popq	%rax
	.cfi_def_cfa_offset 8
	retq
.Ltmp264:
.Lfunc_end106:
	.size	_ZN4core4hint9black_box17h8a23f24134229404E, .Lfunc_end106-_ZN4core4hint9black_box17h8a23f24134229404E
	.cfi_endproc

	.section	.text._ZN4core5alloc6layout6Layout25from_size_align_unchecked17he46594d435bff2cbE,"ax",@progbits
	.p2align	4, 0x90
	.type	_ZN4core5alloc6layout6Layout25from_size_align_unchecked17he46594d435bff2cbE,@function
_ZN4core5alloc6layout6Layout25from_size_align_unchecked17he46594d435bff2cbE:
.Lfunc_begin107:
	.file	27 "/builddir/build/BUILD/rustc-1.62.1-src/library/core/src/alloc/layout.rs"
	.loc	27 98 0
	.cfi_startproc
	subq	$56, %rsp
	.cfi_def_cfa_offset 64
	movq	%rsi, (%rsp)
	movq	%rdi, %rax
	movq	(%rsp), %rdi
	movq	%rax, 8(%rsp)
	movq	%rax, 40(%rsp)
	movq	%rdi, 48(%rsp)
.Ltmp265:
	.loc	27 100 40 prologue_end
	callq	_ZN4core3mem11valid_align10ValidAlign13new_unchecked17hed0ed87729296e75E
	movq	%rax, 16(%rsp)
	.loc	27 0 40 is_stmt 0
	movq	16(%rsp), %rax
	movq	8(%rsp), %rcx
	.loc	27 100 9
	movq	%rcx, 24(%rsp)
	movq	%rax, 32(%rsp)
	.loc	27 101 6 is_stmt 1
	movq	24(%rsp), %rax
	movq	32(%rsp), %rdx
	addq	$56, %rsp
	.cfi_def_cfa_offset 8
	retq
.Ltmp266:
.Lfunc_end107:
	.size	_ZN4core5alloc6layout6Layout25from_size_align_unchecked17he46594d435bff2cbE, .Lfunc_end107-_ZN4core5alloc6layout6Layout25from_size_align_unchecked17he46594d435bff2cbE
	.cfi_endproc

	.section	.text._ZN4core5alloc6layout6Layout4size17h097db01888c7f792E,"ax",@progbits
	.p2align	4, 0x90
	.type	_ZN4core5alloc6layout6Layout4size17h097db01888c7f792E,@function
_ZN4core5alloc6layout6Layout4size17h097db01888c7f792E:
.Lfunc_begin108:
	.loc	27 108 0
	.cfi_startproc
	pushq	%rax
	.cfi_def_cfa_offset 16
	movq	%rdi, (%rsp)
.Ltmp267:
	.loc	27 109 9 prologue_end
	movq	(%rdi), %rax
	.loc	27 110 6
	popq	%rcx
	.cfi_def_cfa_offset 8
	retq
.Ltmp268:
.Lfunc_end108:
	.size	_ZN4core5alloc6layout6Layout4size17h097db01888c7f792E, .Lfunc_end108-_ZN4core5alloc6layout6Layout4size17h097db01888c7f792E
	.cfi_endproc

	.section	.text._ZN4core5alloc6layout6Layout5align17hccd89aca8e6b684cE,"ax",@progbits
	.p2align	4, 0x90
	.type	_ZN4core5alloc6layout6Layout5align17hccd89aca8e6b684cE,@function
_ZN4core5alloc6layout6Layout5align17hccd89aca8e6b684cE:
.Lfunc_begin109:
	.loc	27 118 0
	.cfi_startproc
	subq	$24, %rsp
	.cfi_def_cfa_offset 32
	movq	%rdi, 16(%rsp)
.Ltmp269:
	.loc	27 119 9 prologue_end
	movq	8(%rdi), %rdi
	callq	_ZN4core3mem11valid_align10ValidAlign10as_nonzero17ha5e5bda800455cdeE
	movq	%rax, 8(%rsp)
	.loc	27 0 9 is_stmt 0
	movq	8(%rsp), %rdi
	.loc	27 119 9
	callq	_ZN4core3num7nonzero12NonZeroUsize3get17hff8d0336638c14a8E
	movq	%rax, (%rsp)
	.loc	27 0 9
	movq	(%rsp), %rax
	.loc	27 120 6 is_stmt 1
	addq	$24, %rsp
	.cfi_def_cfa_offset 8
	retq
.Ltmp270:
.Lfunc_end109:
	.size	_ZN4core5alloc6layout6Layout5align17hccd89aca8e6b684cE, .Lfunc_end109-_ZN4core5alloc6layout6Layout5align17hccd89aca8e6b684cE
	.cfi_endproc

	.section	.text._ZN4core5alloc6layout6Layout5array17h1183ea9d95bb588fE,"ax",@progbits
	.p2align	4, 0x90
	.type	_ZN4core5alloc6layout6Layout5array17h1183ea9d95bb588fE,@function
_ZN4core5alloc6layout6Layout5array17h1183ea9d95bb588fE:
.Lfunc_begin110:
	.loc	27 406 0
	.cfi_startproc
	subq	$136, %rsp
	.cfi_def_cfa_offset 144
	movq	%rdi, 64(%rsp)
	movq	%rdi, 104(%rsp)
	movq	64(%rsp), %rsi
.Ltmp271:
	.loc	27 407 26 prologue_end
	movl	$8, %edi
	callq	_ZN4core3num23_$LT$impl$u20$usize$GT$11checked_mul17hc9176a8b3a45fe89E
	movq	%rax, 48(%rsp)
	movq	%rdx, 56(%rsp)
	.loc	27 0 26 is_stmt 0
	movq	56(%rsp), %rsi
	movq	48(%rsp), %rdi
	.loc	27 407 26
	callq	_ZN4core6option15Option$LT$T$GT$5ok_or17h3dc91652fae2d125E
	movq	%rax, 32(%rsp)
	movq	%rdx, 40(%rsp)
	.loc	27 0 26
	movq	40(%rsp), %rsi
	movq	32(%rsp), %rdi
	.loc	27 407 26
	callq	_ZN79_$LT$core..result..Result$LT$T$C$E$GT$$u20$as$u20$core..ops..try_trait..Try$GT$6branch17h6620e1ba06c03d19E
	movq	%rdx, 96(%rsp)
	movq	%rax, 88(%rsp)
	movq	88(%rsp), %rax
	testq	%rax, %rax
	je	.LBB110_6
	jmp	.LBB110_12
.LBB110_12:
	jmp	.LBB110_7
	.cfi_def_cfa_offset 8
	ud2
.LBB110_6:
	.cfi_def_cfa_offset 144
	movq	96(%rsp), %rax
	movq	%rax, 24(%rsp)
	movq	%rax, 120(%rsp)
.Ltmp272:
	.loc	27 407 26
	movq	%rax, 128(%rsp)
.Ltmp273:
	.loc	27 417 67 is_stmt 1
	jmp	.LBB110_10
.Ltmp274:
.LBB110_7:
	.loc	27 407 26
	leaq	.L__unnamed_3(%rip), %rdi
	callq	_ZN153_$LT$core..result..Result$LT$T$C$F$GT$$u20$as$u20$core..ops..try_trait..FromResidual$LT$core..result..Result$LT$core..convert..Infallible$C$E$GT$$GT$$GT$13from_residual17h61c0764d4a0a03d8E
	movq	%rdx, 80(%rsp)
	movq	%rax, 72(%rsp)
.Ltmp275:
	.loc	27 418 6
	jmp	.LBB110_9
.LBB110_9:
	movq	72(%rsp), %rax
	movq	80(%rsp), %rdx
	addq	$136, %rsp
	.cfi_def_cfa_offset 8
	retq
.LBB110_10:
	.cfi_def_cfa_offset 144
	.loc	27 0 6 is_stmt 0
	movq	24(%rsp), %rdi
.Ltmp276:
	.loc	27 417 21 is_stmt 1
	movl	$8, %esi
	callq	_ZN4core5alloc6layout6Layout25from_size_align_unchecked17he46594d435bff2cbE
	movq	%rax, 8(%rsp)
	movq	%rdx, 16(%rsp)
	.loc	27 0 21 is_stmt 0
	movq	16(%rsp), %rax
	movq	8(%rsp), %rcx
	.loc	27 417 9
	movq	%rcx, 72(%rsp)
	movq	%rax, 80(%rsp)
.Ltmp277:
	.loc	27 418 6 is_stmt 1
	jmp	.LBB110_9
.Ltmp278:
.Lfunc_end110:
	.size	_ZN4core5alloc6layout6Layout5array17h1183ea9d95bb588fE, .Lfunc_end110-_ZN4core5alloc6layout6Layout5array17h1183ea9d95bb588fE
	.cfi_endproc

	.section	.text._ZN4core5alloc6layout6Layout5array17h14502127a1859509E,"ax",@progbits
	.p2align	4, 0x90
	.type	_ZN4core5alloc6layout6Layout5array17h14502127a1859509E,@function
_ZN4core5alloc6layout6Layout5array17h14502127a1859509E:
.Lfunc_begin111:
	.loc	27 406 0
	.cfi_startproc
	subq	$136, %rsp
	.cfi_def_cfa_offset 144
	movq	%rdi, 64(%rsp)
	movq	%rdi, 104(%rsp)
	movq	64(%rsp), %rsi
.Ltmp279:
	.loc	27 407 26 prologue_end
	movl	$1, %edi
	callq	_ZN4core3num23_$LT$impl$u20$usize$GT$11checked_mul17hc9176a8b3a45fe89E
	movq	%rax, 48(%rsp)
	movq	%rdx, 56(%rsp)
	.loc	27 0 26 is_stmt 0
	movq	56(%rsp), %rsi
	movq	48(%rsp), %rdi
	.loc	27 407 26
	callq	_ZN4core6option15Option$LT$T$GT$5ok_or17h3dc91652fae2d125E
	movq	%rax, 32(%rsp)
	movq	%rdx, 40(%rsp)
	.loc	27 0 26
	movq	40(%rsp), %rsi
	movq	32(%rsp), %rdi
	.loc	27 407 26
	callq	_ZN79_$LT$core..result..Result$LT$T$C$E$GT$$u20$as$u20$core..ops..try_trait..Try$GT$6branch17h6620e1ba06c03d19E
	movq	%rdx, 96(%rsp)
	movq	%rax, 88(%rsp)
	movq	88(%rsp), %rax
	testq	%rax, %rax
	je	.LBB111_6
	jmp	.LBB111_12
.LBB111_12:
	jmp	.LBB111_7
	.cfi_def_cfa_offset 8
	ud2
.LBB111_6:
	.cfi_def_cfa_offset 144
	movq	96(%rsp), %rax
	movq	%rax, 24(%rsp)
	movq	%rax, 120(%rsp)
.Ltmp280:
	.loc	27 407 26
	movq	%rax, 128(%rsp)
.Ltmp281:
	.loc	27 417 67 is_stmt 1
	jmp	.LBB111_10
.Ltmp282:
.LBB111_7:
	.loc	27 407 26
	leaq	.L__unnamed_3(%rip), %rdi
	callq	_ZN153_$LT$core..result..Result$LT$T$C$F$GT$$u20$as$u20$core..ops..try_trait..FromResidual$LT$core..result..Result$LT$core..convert..Infallible$C$E$GT$$GT$$GT$13from_residual17h61c0764d4a0a03d8E
	movq	%rdx, 80(%rsp)
	movq	%rax, 72(%rsp)
.Ltmp283:
	.loc	27 418 6
	jmp	.LBB111_9
.LBB111_9:
	movq	72(%rsp), %rax
	movq	80(%rsp), %rdx
	addq	$136, %rsp
	.cfi_def_cfa_offset 8
	retq
.LBB111_10:
	.cfi_def_cfa_offset 144
	.loc	27 0 6 is_stmt 0
	movq	24(%rsp), %rdi
.Ltmp284:
	.loc	27 417 21 is_stmt 1
	movl	$1, %esi
	callq	_ZN4core5alloc6layout6Layout25from_size_align_unchecked17he46594d435bff2cbE
	movq	%rax, 8(%rsp)
	movq	%rdx, 16(%rsp)
	.loc	27 0 21 is_stmt 0
	movq	16(%rsp), %rax
	movq	8(%rsp), %rcx
	.loc	27 417 9
	movq	%rcx, 72(%rsp)
	movq	%rax, 80(%rsp)
.Ltmp285:
	.loc	27 418 6 is_stmt 1
	jmp	.LBB111_9
.Ltmp286:
.Lfunc_end111:
	.size	_ZN4core5alloc6layout6Layout5array17h14502127a1859509E, .Lfunc_end111-_ZN4core5alloc6layout6Layout5array17h14502127a1859509E
	.cfi_endproc

	.section	.text._ZN4core5alloc6layout6Layout8dangling17h0c5fd54924f91bc3E,"ax",@progbits
	.p2align	4, 0x90
	.type	_ZN4core5alloc6layout6Layout8dangling17h0c5fd54924f91bc3E,@function
_ZN4core5alloc6layout6Layout8dangling17h0c5fd54924f91bc3E:
.Lfunc_begin112:
	.loc	27 194 0
	.cfi_startproc
	subq	$40, %rsp
	.cfi_def_cfa_offset 48
	movq	%rdi, 24(%rsp)
.Ltmp287:
	.loc	27 196 71 prologue_end
	callq	_ZN4core5alloc6layout6Layout5align17hccd89aca8e6b684cE
	movq	%rax, 16(%rsp)
	.loc	27 0 71 is_stmt 0
	movq	16(%rsp), %rax
	movq	%rax, 32(%rsp)
	movq	16(%rsp), %rdi
	.loc	27 196 18
	callq	_ZN4core3ptr8non_null16NonNull$LT$T$GT$13new_unchecked17h5f15a3ad47ed5c56E
	movq	%rax, 8(%rsp)
	.loc	27 0 18
	movq	8(%rsp), %rax
	.loc	27 197 6 is_stmt 1
	addq	$40, %rsp
	.cfi_def_cfa_offset 8
	retq
.Ltmp288:
.Lfunc_end112:
	.size	_ZN4core5alloc6layout6Layout8dangling17h0c5fd54924f91bc3E, .Lfunc_end112-_ZN4core5alloc6layout6Layout8dangling17h0c5fd54924f91bc3E
	.cfi_endproc

	.section	".text._ZN4core5slice29_$LT$impl$u20$$u5b$T$u5d$$GT$3len17hac80f6f6122cb9edE","ax",@progbits
	.p2align	4, 0x90
	.type	_ZN4core5slice29_$LT$impl$u20$$u5b$T$u5d$$GT$3len17hac80f6f6122cb9edE,@function
_ZN4core5slice29_$LT$impl$u20$$u5b$T$u5d$$GT$3len17hac80f6f6122cb9edE:
.Lfunc_begin113:
	.file	28 "/builddir/build/BUILD/rustc-1.62.1-src/library/core/src/slice/mod.rs"
	.loc	28 129 0
	.cfi_startproc
	subq	$32, %rsp
	.cfi_def_cfa_offset 40
	movq	%rdi, 16(%rsp)
	movq	%rsi, 24(%rsp)
.Ltmp289:
	.loc	28 137 18 prologue_end
	movq	%rdi, (%rsp)
	movq	%rsi, 8(%rsp)
	movq	8(%rsp), %rax
	.loc	28 138 6
	addq	$32, %rsp
	.cfi_def_cfa_offset 8
	retq
.Ltmp290:
.Lfunc_end113:
	.size	_ZN4core5slice29_$LT$impl$u20$$u5b$T$u5d$$GT$3len17hac80f6f6122cb9edE, .Lfunc_end113-_ZN4core5slice29_$LT$impl$u20$$u5b$T$u5d$$GT$3len17hac80f6f6122cb9edE
	.cfi_endproc

	.section	".text._ZN4core5slice29_$LT$impl$u20$$u5b$T$u5d$$GT$3len17hf8a49ab1b7a82abbE","ax",@progbits
	.p2align	4, 0x90
	.type	_ZN4core5slice29_$LT$impl$u20$$u5b$T$u5d$$GT$3len17hf8a49ab1b7a82abbE,@function
_ZN4core5slice29_$LT$impl$u20$$u5b$T$u5d$$GT$3len17hf8a49ab1b7a82abbE:
.Lfunc_begin114:
	.loc	28 129 0
	.cfi_startproc
	subq	$32, %rsp
	.cfi_def_cfa_offset 40
	movq	%rdi, 16(%rsp)
	movq	%rsi, 24(%rsp)
.Ltmp291:
	.loc	28 137 18 prologue_end
	movq	%rdi, (%rsp)
	movq	%rsi, 8(%rsp)
	movq	8(%rsp), %rax
	.loc	28 138 6
	addq	$32, %rsp
	.cfi_def_cfa_offset 8
	retq
.Ltmp292:
.Lfunc_end114:
	.size	_ZN4core5slice29_$LT$impl$u20$$u5b$T$u5d$$GT$3len17hf8a49ab1b7a82abbE, .Lfunc_end114-_ZN4core5slice29_$LT$impl$u20$$u5b$T$u5d$$GT$3len17hf8a49ab1b7a82abbE
	.cfi_endproc

	.section	".text._ZN4core5slice29_$LT$impl$u20$$u5b$T$u5d$$GT$4iter17h60d15971ab348cd5E","ax",@progbits
	.p2align	4, 0x90
	.type	_ZN4core5slice29_$LT$impl$u20$$u5b$T$u5d$$GT$4iter17h60d15971ab348cd5E,@function
_ZN4core5slice29_$LT$impl$u20$$u5b$T$u5d$$GT$4iter17h60d15971ab348cd5E:
.Lfunc_begin115:
	.loc	28 732 0
	.cfi_startproc
	subq	$40, %rsp
	.cfi_def_cfa_offset 48
	movq	%rdi, 24(%rsp)
	movq	%rsi, 32(%rsp)
.Ltmp293:
	.loc	28 733 9 prologue_end
	callq	_ZN4core5slice4iter13Iter$LT$T$GT$3new17h835f8d23fefc3d07E
	movq	%rax, 8(%rsp)
	movq	%rdx, 16(%rsp)
	.loc	28 0 9 is_stmt 0
	movq	16(%rsp), %rdx
	movq	8(%rsp), %rax
	.loc	28 734 6 is_stmt 1
	addq	$40, %rsp
	.cfi_def_cfa_offset 8
	retq
.Ltmp294:
.Lfunc_end115:
	.size	_ZN4core5slice29_$LT$impl$u20$$u5b$T$u5d$$GT$4iter17h60d15971ab348cd5E, .Lfunc_end115-_ZN4core5slice29_$LT$impl$u20$$u5b$T$u5d$$GT$4iter17h60d15971ab348cd5E
	.cfi_endproc

	.section	".text._ZN4core5slice29_$LT$impl$u20$$u5b$T$u5d$$GT$6as_ptr17h74c60431859de506E","ax",@progbits
	.p2align	4, 0x90
	.type	_ZN4core5slice29_$LT$impl$u20$$u5b$T$u5d$$GT$6as_ptr17h74c60431859de506E,@function
_ZN4core5slice29_$LT$impl$u20$$u5b$T$u5d$$GT$6as_ptr17h74c60431859de506E:
.Lfunc_begin116:
	.loc	28 476 0
	.cfi_startproc
	subq	$16, %rsp
	.cfi_def_cfa_offset 24
	movq	%rdi, %rax
	movq	%rax, (%rsp)
	movq	%rsi, 8(%rsp)
.Ltmp295:
	.loc	28 478 6 prologue_end
	addq	$16, %rsp
	.cfi_def_cfa_offset 8
	retq
.Ltmp296:
.Lfunc_end116:
	.size	_ZN4core5slice29_$LT$impl$u20$$u5b$T$u5d$$GT$6as_ptr17h74c60431859de506E, .Lfunc_end116-_ZN4core5slice29_$LT$impl$u20$$u5b$T$u5d$$GT$6as_ptr17h74c60431859de506E
	.cfi_endproc

	.section	".text._ZN4core5slice29_$LT$impl$u20$$u5b$T$u5d$$GT$6as_ptr17hf51717e48aae2ce4E","ax",@progbits
	.p2align	4, 0x90
	.type	_ZN4core5slice29_$LT$impl$u20$$u5b$T$u5d$$GT$6as_ptr17hf51717e48aae2ce4E,@function
_ZN4core5slice29_$LT$impl$u20$$u5b$T$u5d$$GT$6as_ptr17hf51717e48aae2ce4E:
.Lfunc_begin117:
	.loc	28 476 0
	.cfi_startproc
	subq	$16, %rsp
	.cfi_def_cfa_offset 24
	movq	%rdi, %rax
	movq	%rax, (%rsp)
	movq	%rsi, 8(%rsp)
.Ltmp297:
	.loc	28 478 6 prologue_end
	addq	$16, %rsp
	.cfi_def_cfa_offset 8
	retq
.Ltmp298:
.Lfunc_end117:
	.size	_ZN4core5slice29_$LT$impl$u20$$u5b$T$u5d$$GT$6as_ptr17hf51717e48aae2ce4E, .Lfunc_end117-_ZN4core5slice29_$LT$impl$u20$$u5b$T$u5d$$GT$6as_ptr17hf51717e48aae2ce4E
	.cfi_endproc

	.section	.text._ZN4core5slice3raw14from_raw_parts17h08cb21671ad2150bE,"ax",@progbits
	.p2align	4, 0x90
	.type	_ZN4core5slice3raw14from_raw_parts17h08cb21671ad2150bE,@function
_ZN4core5slice3raw14from_raw_parts17h08cb21671ad2150bE:
.Lfunc_begin118:
	.file	29 "/builddir/build/BUILD/rustc-1.62.1-src/library/core/src/slice/raw.rs"
	.loc	29 90 0
	.cfi_startproc
	subq	$40, %rsp
	.cfi_def_cfa_offset 48
	movq	%rdi, 24(%rsp)
	movq	%rsi, 32(%rsp)
.Ltmp299:
	.loc	29 97 11 prologue_end
	callq	_ZN4core3ptr20slice_from_raw_parts17h2e505e7591019e80E
	movq	%rax, 8(%rsp)
	movq	%rdx, 16(%rsp)
	.loc	29 0 11 is_stmt 0
	movq	16(%rsp), %rdx
	movq	8(%rsp), %rax
	.loc	29 99 2 is_stmt 1
	addq	$40, %rsp
	.cfi_def_cfa_offset 8
	retq
.Ltmp300:
.Lfunc_end118:
	.size	_ZN4core5slice3raw14from_raw_parts17h08cb21671ad2150bE, .Lfunc_end118-_ZN4core5slice3raw14from_raw_parts17h08cb21671ad2150bE
	.cfi_endproc

	.section	.text._ZN4core5slice3raw14from_raw_parts17h0e0250153d627a4aE,"ax",@progbits
	.p2align	4, 0x90
	.type	_ZN4core5slice3raw14from_raw_parts17h0e0250153d627a4aE,@function
_ZN4core5slice3raw14from_raw_parts17h0e0250153d627a4aE:
.Lfunc_begin119:
	.loc	29 90 0
	.cfi_startproc
	subq	$40, %rsp
	.cfi_def_cfa_offset 48
	movq	%rdi, 24(%rsp)
	movq	%rsi, 32(%rsp)
.Ltmp301:
	.loc	29 97 11 prologue_end
	callq	_ZN4core3ptr20slice_from_raw_parts17hbcb7e1f6aa048b2eE
	movq	%rax, 8(%rsp)
	movq	%rdx, 16(%rsp)
	.loc	29 0 11 is_stmt 0
	movq	16(%rsp), %rdx
	movq	8(%rsp), %rax
	.loc	29 99 2 is_stmt 1
	addq	$40, %rsp
	.cfi_def_cfa_offset 8
	retq
.Ltmp302:
.Lfunc_end119:
	.size	_ZN4core5slice3raw14from_raw_parts17h0e0250153d627a4aE, .Lfunc_end119-_ZN4core5slice3raw14from_raw_parts17h0e0250153d627a4aE
	.cfi_endproc

	.section	".text._ZN4core5slice4iter13Iter$LT$T$GT$3new17h835f8d23fefc3d07E","ax",@progbits
	.p2align	4, 0x90
	.type	_ZN4core5slice4iter13Iter$LT$T$GT$3new17h835f8d23fefc3d07E,@function
_ZN4core5slice4iter13Iter$LT$T$GT$3new17h835f8d23fefc3d07E:
.Lfunc_begin120:
	.file	30 "/builddir/build/BUILD/rustc-1.62.1-src/library/core/src/slice/iter.rs"
	.loc	30 88 0
	.cfi_startproc
	subq	$168, %rsp
	.cfi_def_cfa_offset 176
	movq	%rsi, 24(%rsp)
	movq	%rdi, 64(%rsp)
	movq	%rsi, 72(%rsp)
.Ltmp303:
	.loc	30 89 19 prologue_end
	callq	_ZN4core5slice29_$LT$impl$u20$$u5b$T$u5d$$GT$6as_ptr17h74c60431859de506E
	movq	%rax, 32(%rsp)
	movq	%rax, 80(%rsp)
	.loc	30 0 19 is_stmt 0
	movq	32(%rsp), %rdi
.Ltmp304:
	.loc	30 92 21 is_stmt 1
	callq	_ZN4core3ptr9const_ptr33_$LT$impl$u20$$BP$const$u20$T$GT$7is_null17h40b7b9de45742397E
	.loc	30 94 26
	jmp	.LBB120_4
.LBB120_4:
	movl	$1, %eax
	cmpq	$0, %rax
	jne	.LBB120_6
	.loc	30 0 26 is_stmt 0
	movq	24(%rsp), %rcx
	movq	32(%rsp), %rax
	movq	%rax, 88(%rsp)
	movq	%rcx, 96(%rsp)
	movq	%rax, 104(%rsp)
	movq	%rcx, 112(%rsp)
.Ltmp305:
	.loc	24 517 18 is_stmt 1
	addq	%rcx, %rax
	movq	%rax, 120(%rsp)
	movq	120(%rsp), %rax
	movq	%rax, 16(%rsp)
.Ltmp306:
	.loc	30 95 17
	jmp	.LBB120_9
.LBB120_6:
	.loc	30 0 17 is_stmt 0
	movq	24(%rsp), %rcx
	movq	32(%rsp), %rax
	movq	%rax, 128(%rsp)
	movq	%rcx, 136(%rsp)
	movq	%rax, 144(%rsp)
	movq	%rcx, 152(%rsp)
.Ltmp307:
	.loc	24 455 18 is_stmt 1
	addq	%rcx, %rax
	movq	%rax, 160(%rsp)
	movq	160(%rsp), %rax
.Ltmp308:
	.loc	30 97 17
	movq	%rax, 56(%rsp)
	.loc	30 94 23
	jmp	.LBB120_8
.LBB120_8:
	.loc	30 0 23 is_stmt 0
	movq	32(%rsp), %rdi
.Ltmp309:
	.loc	30 100 25 is_stmt 1
	callq	_ZN4core3ptr8non_null16NonNull$LT$T$GT$13new_unchecked17h5f15a3ad47ed5c56E
	movq	%rax, 8(%rsp)
	jmp	.LBB120_10
.Ltmp310:
.LBB120_9:
	.loc	30 0 25 is_stmt 0
	movq	16(%rsp), %rax
	.loc	30 95 17 is_stmt 1
	movq	%rax, 56(%rsp)
	.loc	30 94 23
	jmp	.LBB120_8
.LBB120_10:
	.loc	30 0 23 is_stmt 0
	movq	8(%rsp), %rcx
.Ltmp311:
	.loc	30 100 64 is_stmt 1
	movq	56(%rsp), %rax
	.loc	30 100 13 is_stmt 0
	movq	%rcx, 40(%rsp)
	movq	%rax, 48(%rsp)
.Ltmp312:
	.loc	30 102 6 is_stmt 1
	movq	40(%rsp), %rax
	movq	48(%rsp), %rdx
	addq	$168, %rsp
	.cfi_def_cfa_offset 8
	retq
.Ltmp313:
.Lfunc_end120:
	.size	_ZN4core5slice4iter13Iter$LT$T$GT$3new17h835f8d23fefc3d07E, .Lfunc_end120-_ZN4core5slice4iter13Iter$LT$T$GT$3new17h835f8d23fefc3d07E
	.cfi_endproc

	.section	".text._ZN4core5slice4iter13Iter$LT$T$GT$8as_slice17h2d144c5f8388d237E","ax",@progbits
	.p2align	4, 0x90
	.type	_ZN4core5slice4iter13Iter$LT$T$GT$8as_slice17h2d144c5f8388d237E,@function
_ZN4core5slice4iter13Iter$LT$T$GT$8as_slice17h2d144c5f8388d237E:
.Lfunc_begin121:
	.loc	30 130 0
	.cfi_startproc
	subq	$136, %rsp
	.cfi_def_cfa_offset 144
	movq	%rdi, 32(%rsp)
	movq	%rdi, 56(%rsp)
	movq	%rdi, 72(%rsp)
.Ltmp314:
	.file	31 "/builddir/build/BUILD/rustc-1.62.1-src/library/core/src/slice/iter/macros.rs"
	.loc	31 78 41 prologue_end
	movq	(%rdi), %rdi
	callq	_ZN4core3ptr8non_null16NonNull$LT$T$GT$6as_ptr17h808fdef249a03bf0E
	movq	32(%rsp), %rdi
	movq	%rax, 40(%rsp)
	.loc	31 78 60 is_stmt 0
	movq	(%rdi), %rdi
	movq	%rdi, 48(%rsp)
	movq	%rdi, 80(%rsp)
.Ltmp315:
	.loc	31 78 60
	callq	_ZN4core3ptr8non_null16NonNull$LT$T$GT$6as_ptr17h808fdef249a03bf0E
	movq	%rax, 128(%rsp)
	movq	$1, 88(%rsp)
.Ltmp316:
	.loc	31 78 60
	movl	$1, %eax
	cmpq	$0, %rax
	jne	.LBB121_2
	.loc	31 0 60
	movq	32(%rsp), %rax
	.loc	31 78 60
	movq	8(%rax), %rdi
	callq	_ZN4core3ptr9const_ptr33_$LT$impl$u20$$BP$const$u20$T$GT$4addr17hecfd37770e54b03aE
	movq	48(%rsp), %rdi
	movq	%rax, 24(%rsp)
	callq	_ZN4core3ptr8non_null16NonNull$LT$T$GT$6as_ptr17h808fdef249a03bf0E
	movq	%rax, %rdi
	callq	_ZN4core3ptr7mut_ptr31_$LT$impl$u20$$BP$mut$u20$T$GT$4addr17hbb254bfddd695fdcE
	movq	%rax, %rcx
	movq	24(%rsp), %rax
	movq	%rax, 112(%rsp)
	movq	%rcx, 120(%rsp)
.Ltmp317:
	.loc	17 1226 13 is_stmt 1
	subq	%rcx, %rax
.Ltmp318:
	.loc	31 78 60
	movq	%rax, 64(%rsp)
	jmp	.LBB121_3
.LBB121_2:
	.loc	31 0 60 is_stmt 0
	movq	32(%rsp), %rax
	.loc	31 78 60
	movq	8(%rax), %rdi
	callq	_ZN4core3ptr9const_ptr33_$LT$impl$u20$$BP$const$u20$T$GT$4addr17hecfd37770e54b03aE
	movq	48(%rsp), %rdi
	movq	%rax, 16(%rsp)
	callq	_ZN4core3ptr8non_null16NonNull$LT$T$GT$6as_ptr17h808fdef249a03bf0E
	movq	%rax, %rdi
	callq	_ZN4core3ptr7mut_ptr31_$LT$impl$u20$$BP$mut$u20$T$GT$4addr17hbb254bfddd695fdcE
	movq	%rax, %rcx
	movq	16(%rsp), %rax
	subq	%rcx, %rax
	movq	%rax, 96(%rsp)
	movq	96(%rsp), %rax
	movq	%rax, 104(%rsp)
.Ltmp319:
	.loc	31 78 60
	shrq	$0, %rax
	movq	%rax, 64(%rsp)
.Ltmp320:
.LBB121_3:
	.loc	31 0 60
	movq	40(%rsp), %rdi
	.loc	31 78 26
	movq	64(%rsp), %rsi
	callq	_ZN4core5slice3raw14from_raw_parts17h0e0250153d627a4aE
	movq	%rax, (%rsp)
	movq	%rdx, 8(%rsp)
.Ltmp321:
	.loc	31 0 26
	movq	8(%rsp), %rdx
	movq	(%rsp), %rax
	.loc	30 132 6 is_stmt 1
	addq	$136, %rsp
	.cfi_def_cfa_offset 8
	retq
.Ltmp322:
.Lfunc_end121:
	.size	_ZN4core5slice4iter13Iter$LT$T$GT$8as_slice17h2d144c5f8388d237E, .Lfunc_end121-_ZN4core5slice4iter13Iter$LT$T$GT$8as_slice17h2d144c5f8388d237E
	.cfi_endproc

	.section	".text._ZN4core5slice5index74_$LT$impl$u20$core..ops..index..Index$LT$I$GT$$u20$for$u20$$u5b$T$u5d$$GT$5index17hcafb345d2881c7d2E","ax",@progbits
	.p2align	4, 0x90
	.type	_ZN4core5slice5index74_$LT$impl$u20$core..ops..index..Index$LT$I$GT$$u20$for$u20$$u5b$T$u5d$$GT$5index17hcafb345d2881c7d2E,@function
_ZN4core5slice5index74_$LT$impl$u20$core..ops..index..Index$LT$I$GT$$u20$for$u20$$u5b$T$u5d$$GT$5index17hcafb345d2881c7d2E:
.Lfunc_begin122:
	.file	32 "/builddir/build/BUILD/rustc-1.62.1-src/library/core/src/slice/index.rs"
	.loc	32 17 0
	.cfi_startproc
	subq	$40, %rsp
	.cfi_def_cfa_offset 48
	movq	%rdx, (%rsp)
	movq	%rsi, %rdx
	movq	%rdi, %rsi
	movq	(%rsp), %rdi
	movq	%rsi, 16(%rsp)
	movq	%rdx, 24(%rsp)
	movq	%rdi, 32(%rsp)
.Ltmp323:
	.loc	32 18 9 prologue_end
	callq	_ZN75_$LT$usize$u20$as$u20$core..slice..index..SliceIndex$LT$$u5b$T$u5d$$GT$$GT$5index17h0b169530706163b6E
	movq	%rax, 8(%rsp)
	.loc	32 0 9 is_stmt 0
	movq	8(%rsp), %rax
	.loc	32 19 6 is_stmt 1
	addq	$40, %rsp
	.cfi_def_cfa_offset 8
	retq
.Ltmp324:
.Lfunc_end122:
	.size	_ZN4core5slice5index74_$LT$impl$u20$core..ops..index..Index$LT$I$GT$$u20$for$u20$$u5b$T$u5d$$GT$5index17hcafb345d2881c7d2E, .Lfunc_end122-_ZN4core5slice5index74_$LT$impl$u20$core..ops..index..Index$LT$I$GT$$u20$for$u20$$u5b$T$u5d$$GT$5index17hcafb345d2881c7d2E
	.cfi_endproc

	.section	".text._ZN4core6option15Option$LT$T$GT$5ok_or17h3dc91652fae2d125E","ax",@progbits
	.p2align	4, 0x90
	.type	_ZN4core6option15Option$LT$T$GT$5ok_or17h3dc91652fae2d125E,@function
_ZN4core6option15Option$LT$T$GT$5ok_or17h3dc91652fae2d125E:
.Lfunc_begin123:
	.file	33 "/builddir/build/BUILD/rustc-1.62.1-src/library/core/src/option.rs"
	.loc	33 1031 0
	.cfi_startproc
	subq	$56, %rsp
	.cfi_def_cfa_offset 64
	movq	%rdi, (%rsp)
	movq	%rsi, 8(%rsp)
.Ltmp325:
	.loc	33 1035 15 prologue_end
	movb	$0, 39(%rsp)
	movb	$1, 39(%rsp)
	movq	(%rsp), %rax
	.loc	33 1035 9 is_stmt 0
	testq	%rax, %rax
	je	.LBB123_2
	jmp	.LBB123_7
.LBB123_7:
	jmp	.LBB123_3
	.cfi_def_cfa_offset 8
	.loc	33 1035 15
	ud2
.LBB123_2:
	.cfi_def_cfa_offset 64
	.loc	33 1037 25 is_stmt 1
	movb	$0, 39(%rsp)
	.loc	33 1037 21 is_stmt 0
	movq	$1, 16(%rsp)
	.loc	33 1037 28
	jmp	.LBB123_4
.LBB123_3:
	.loc	33 1036 18 is_stmt 1
	movq	8(%rsp), %rax
	movq	%rax, 48(%rsp)
.Ltmp326:
	.loc	33 1036 24 is_stmt 0
	movq	%rax, 24(%rsp)
	movq	$0, 16(%rsp)
.Ltmp327:
.LBB123_4:
	.loc	33 1039 5 is_stmt 1
	testb	$1, 39(%rsp)
	jne	.LBB123_6
.LBB123_5:
	.loc	33 1039 6 is_stmt 0
	movq	16(%rsp), %rax
	movq	24(%rsp), %rdx
	addq	$56, %rsp
	.cfi_def_cfa_offset 8
	retq
.LBB123_6:
	.cfi_def_cfa_offset 64
	.loc	33 1039 5
	jmp	.LBB123_5
.Ltmp328:
.Lfunc_end123:
	.size	_ZN4core6option15Option$LT$T$GT$5ok_or17h3dc91652fae2d125E, .Lfunc_end123-_ZN4core6option15Option$LT$T$GT$5ok_or17h3dc91652fae2d125E
	.cfi_endproc

	.section	".text._ZN4core6option15Option$LT$T$GT$5ok_or17hd4d10d6ac227da66E","ax",@progbits
	.p2align	4, 0x90
	.type	_ZN4core6option15Option$LT$T$GT$5ok_or17hd4d10d6ac227da66E,@function
_ZN4core6option15Option$LT$T$GT$5ok_or17hd4d10d6ac227da66E:
.Lfunc_begin124:
	.loc	33 1031 0 is_stmt 1
	.cfi_startproc
	subq	$40, %rsp
	.cfi_def_cfa_offset 48
	movq	%rdi, (%rsp)
.Ltmp329:
	.loc	33 1035 15 prologue_end
	movb	$0, 23(%rsp)
	movb	$1, 23(%rsp)
	movq	(%rsp), %rax
	testq	%rax, %rax
	setne	%al
	movzbl	%al, %eax
	.loc	33 1035 9 is_stmt 0
	je	.LBB124_2
	jmp	.LBB124_7
.LBB124_7:
	jmp	.LBB124_3
	.cfi_def_cfa_offset 8
	.loc	33 1035 15
	ud2
.LBB124_2:
	.cfi_def_cfa_offset 48
	.loc	33 1037 25 is_stmt 1
	movb	$0, 23(%rsp)
	.loc	33 1037 21 is_stmt 0
	movq	$0, 8(%rsp)
	.loc	33 1037 28
	jmp	.LBB124_4
.LBB124_3:
	.loc	33 1036 18 is_stmt 1
	movq	(%rsp), %rax
	movq	%rax, 32(%rsp)
.Ltmp330:
	.loc	33 1036 24 is_stmt 0
	movq	%rax, 8(%rsp)
.Ltmp331:
.LBB124_4:
	.loc	33 1039 5 is_stmt 1
	testb	$1, 23(%rsp)
	jne	.LBB124_6
.LBB124_5:
	.loc	33 1039 6 is_stmt 0
	movq	8(%rsp), %rax
	addq	$40, %rsp
	.cfi_def_cfa_offset 8
	retq
.LBB124_6:
	.cfi_def_cfa_offset 48
	.loc	33 1039 5
	jmp	.LBB124_5
.Ltmp332:
.Lfunc_end124:
	.size	_ZN4core6option15Option$LT$T$GT$5ok_or17hd4d10d6ac227da66E, .Lfunc_end124-_ZN4core6option15Option$LT$T$GT$5ok_or17hd4d10d6ac227da66E
	.cfi_endproc

	.section	".text._ZN4core6option15Option$LT$T$GT$5ok_or17hf2d06809563290c0E","ax",@progbits
	.p2align	4, 0x90
	.type	_ZN4core6option15Option$LT$T$GT$5ok_or17hf2d06809563290c0E,@function
_ZN4core6option15Option$LT$T$GT$5ok_or17hf2d06809563290c0E:
.Lfunc_begin125:
	.loc	33 1031 0 is_stmt 1
	.cfi_startproc
	subq	$80, %rsp
	.cfi_def_cfa_offset 88
	movq	%r8, (%rsp)
	movq	%rcx, 8(%rsp)
	movq	%rdi, 16(%rsp)
	movq	%rdi, 24(%rsp)
	movq	%rsi, 32(%rsp)
	movq	%rdx, 40(%rsp)
	movq	%rcx, 56(%rsp)
	movq	%r8, 64(%rsp)
.Ltmp333:
	.loc	33 1035 15 prologue_end
	movb	$0, 55(%rsp)
	movb	$1, 55(%rsp)
	movq	32(%rsp), %rax
	.loc	33 1035 9 is_stmt 0
	testq	%rax, %rax
	je	.LBB125_2
	jmp	.LBB125_7
.LBB125_7:
	jmp	.LBB125_3
	.cfi_def_cfa_offset 8
	.loc	33 1035 15
	ud2
.LBB125_2:
	.cfi_def_cfa_offset 88
	.loc	33 0 15
	movq	16(%rsp), %rax
	movq	(%rsp), %rcx
	movq	8(%rsp), %rdx
	.loc	33 1037 25 is_stmt 1
	movb	$0, 55(%rsp)
	.loc	33 1037 21 is_stmt 0
	movq	%rdx, 8(%rax)
	movq	%rcx, 16(%rax)
	movq	$1, (%rax)
	.loc	33 1037 28
	jmp	.LBB125_4
.LBB125_3:
	.loc	33 0 28
	movq	16(%rsp), %rax
	.loc	33 1036 18 is_stmt 1
	movq	40(%rsp), %rcx
	movq	%rcx, 72(%rsp)
.Ltmp334:
	.loc	33 1036 24 is_stmt 0
	movq	%rcx, 8(%rax)
	movq	$0, (%rax)
.Ltmp335:
.LBB125_4:
	.loc	33 1039 5 is_stmt 1
	testb	$1, 55(%rsp)
	jne	.LBB125_6
.LBB125_5:
	.loc	33 0 5 is_stmt 0
	movq	24(%rsp), %rax
	.loc	33 1039 6
	addq	$80, %rsp
	.cfi_def_cfa_offset 8
	retq
.LBB125_6:
	.cfi_def_cfa_offset 88
	.loc	33 1039 5
	jmp	.LBB125_5
.Ltmp336:
.Lfunc_end125:
	.size	_ZN4core6option15Option$LT$T$GT$5ok_or17hf2d06809563290c0E, .Lfunc_end125-_ZN4core6option15Option$LT$T$GT$5ok_or17hf2d06809563290c0E
	.cfi_endproc

	.section	".text._ZN4core6result19Result$LT$T$C$E$GT$16unwrap_unchecked17ha4279ce2690fb261E","ax",@progbits
	.p2align	4, 0x90
	.type	_ZN4core6result19Result$LT$T$C$E$GT$16unwrap_unchecked17ha4279ce2690fb261E,@function
_ZN4core6result19Result$LT$T$C$E$GT$16unwrap_unchecked17ha4279ce2690fb261E:
.Lfunc_begin126:
	.loc	6 1491 0 is_stmt 1
	.cfi_startproc
	.cfi_personality 155, DW.ref.rust_eh_personality
	.cfi_lsda 27, .Lexception5
	subq	$72, %rsp
	.cfi_def_cfa_offset 80
	movq	%rdi, 16(%rsp)
	movq	%rsi, 24(%rsp)
.Ltmp340:
	.loc	6 1492 9 prologue_end
	movb	$0, 39(%rsp)
	movb	$1, 39(%rsp)
	.loc	6 1493 15
	movq	24(%rsp), %rax
	testq	%rax, %rax
	sete	%al
	movzbl	%al, %eax
	.loc	6 1493 9 is_stmt 0
	jne	.LBB126_2
	jmp	.LBB126_13
.LBB126_13:
	jmp	.LBB126_3
	.cfi_def_cfa_offset 8
	.loc	6 1493 15
	ud2
.LBB126_2:
	.cfi_def_cfa_offset 80
	.loc	6 1494 16 is_stmt 1
	movb	$0, 39(%rsp)
	movq	16(%rsp), %rcx
	movq	%rcx, (%rsp)
	movq	24(%rsp), %rax
	movq	%rax, 8(%rsp)
	movq	%rcx, 56(%rsp)
	movq	%rax, 64(%rsp)
	.loc	6 1498 5
	xorl	%eax, %eax
	movl	$1, %ecx
	cmpq	$0, 24(%rsp)
	cmoveq	%rcx, %rax
	cmpq	$0, %rax
	je	.LBB126_11
	jmp	.LBB126_12
.LBB126_3:
.Ltmp337:
	.loc	6 1496 32
	callq	_ZN4core4hint21unreachable_unchecked17hc4e752fcd4dd2116E
.Ltmp338:
	jmp	.LBB126_6
.LBB126_4:
	.loc	6 1498 5
	xorl	%eax, %eax
	movl	$1, %ecx
	cmpq	$0, 24(%rsp)
	cmoveq	%rcx, %rax
	cmpq	$0, %rax
	je	.LBB126_7
	jmp	.LBB126_8
.LBB126_5:
.Ltmp339:
	.loc	6 0 5 is_stmt 0
	movq	%rax, %rcx
	movl	%edx, %eax
	movq	%rcx, 40(%rsp)
	movl	%eax, 48(%rsp)
	jmp	.LBB126_4
.LBB126_6:
	ud2
.LBB126_7:
	.loc	6 1498 5
	testb	$1, 39(%rsp)
	jne	.LBB126_10
	jmp	.LBB126_9
.LBB126_8:
	jmp	.LBB126_9
.LBB126_9:
	.loc	6 1491 5 is_stmt 1
	movq	40(%rsp), %rdi
	callq	_Unwind_Resume@PLT
	ud2
.LBB126_10:
	.loc	6 1498 5
	jmp	.LBB126_9
.LBB126_11:
	.loc	6 0 5 is_stmt 0
	movq	8(%rsp), %rdx
	movq	(%rsp), %rax
	.loc	6 1498 6
	addq	$72, %rsp
	.cfi_def_cfa_offset 8
	retq
.LBB126_12:
	.cfi_def_cfa_offset 80
	.loc	6 1498 5
	jmp	.LBB126_11
.Ltmp341:
.Lfunc_end126:
	.size	_ZN4core6result19Result$LT$T$C$E$GT$16unwrap_unchecked17ha4279ce2690fb261E, .Lfunc_end126-_ZN4core6result19Result$LT$T$C$E$GT$16unwrap_unchecked17ha4279ce2690fb261E
	.cfi_endproc
	.section	".gcc_except_table._ZN4core6result19Result$LT$T$C$E$GT$16unwrap_unchecked17ha4279ce2690fb261E","a",@progbits
	.p2align	2
GCC_except_table126:
.Lexception5:
	.byte	255
	.byte	255
	.byte	1
	.uleb128 .Lcst_end5-.Lcst_begin5
.Lcst_begin5:
	.uleb128 .Ltmp337-.Lfunc_begin126
	.uleb128 .Ltmp338-.Ltmp337
	.uleb128 .Ltmp339-.Lfunc_begin126
	.byte	0
	.uleb128 .Ltmp338-.Lfunc_begin126
	.uleb128 .Lfunc_end126-.Ltmp338
	.byte	0
	.byte	0
.Lcst_end5:
	.p2align	2

	.section	".text._ZN4core6result19Result$LT$T$C$E$GT$6unwrap17h4e596fef6439c5c3E","ax",@progbits
	.p2align	4, 0x90
	.type	_ZN4core6result19Result$LT$T$C$E$GT$6unwrap17h4e596fef6439c5c3E,@function
_ZN4core6result19Result$LT$T$C$E$GT$6unwrap17h4e596fef6439c5c3E:
.Lfunc_begin127:
	.loc	6 1072 0 is_stmt 1
	.cfi_startproc
	.cfi_personality 155, DW.ref.rust_eh_personality
	.cfi_lsda 27, .Lexception6
	subq	$72, %rsp
	.cfi_def_cfa_offset 80
	movq	%rdi, (%rsp)
.Ltmp348:
	movq	%rsi, 8(%rsp)
.Ltmp349:
	.loc	6 1076 15 prologue_end
	movq	(%rdi), %rax
	.loc	6 1076 9 is_stmt 0
	testq	%rax, %rax
.Ltmp350:
	je	.LBB127_2
	jmp	.LBB127_9
.Ltmp351:
.LBB127_9:
	jmp	.LBB127_3
.Ltmp352:
	.cfi_def_cfa_offset 8
	.loc	6 1076 15
	ud2
.LBB127_2:
	.cfi_def_cfa_offset 80
.Ltmp353:
	.loc	6 0 15
	movq	(%rsp), %rax
	.loc	6 1077 16 is_stmt 1
	movq	8(%rax), %rax
	movq	%rax, 64(%rsp)
	.loc	6 1080 6
	addq	$72, %rsp
	.cfi_def_cfa_offset 8
	retq
.Ltmp354:
.LBB127_3:
	.cfi_def_cfa_offset 80
	.loc	6 0 6 is_stmt 0
	movq	8(%rsp), %r8
	movq	(%rsp), %rax
	.loc	6 1078 17 is_stmt 1
	movq	24(%rax), %rcx
	movq	%rcx, 32(%rsp)
	movups	8(%rax), %xmm0
	movaps	%xmm0, 16(%rsp)
.Ltmp342:
.Ltmp355:
	.loc	6 1078 23 is_stmt 0
	leaq	.L__unnamed_4(%rip), %rdi
	leaq	.L__unnamed_2(%rip), %rcx
	movq	_ZN4core6result13unwrap_failed17h19cc7fb9989ff5e1E@GOTPCREL(%rip), %rax
	movl	$43, %esi
	leaq	16(%rsp), %rdx
	callq	*%rax
.Ltmp343:
	jmp	.LBB127_6
.Ltmp356:
.LBB127_4:
.Ltmp345:
	.loc	6 0 23
	leaq	16(%rsp), %rdi
	.loc	6 1078 86
	callq	_ZN4core3ptr42drop_in_place$LT$alloc..string..String$GT$17h3d54115ed9f56dfeE
.Ltmp346:
	jmp	.LBB127_8
.Ltmp357:
.LBB127_5:
.Ltmp344:
	.loc	6 0 86
	movq	%rax, %rcx
	movl	%edx, %eax
	movq	%rcx, 48(%rsp)
	movl	%eax, 56(%rsp)
	jmp	.LBB127_4
.Ltmp358:
.LBB127_6:
	ud2
.Ltmp359:
.LBB127_7:
.Ltmp347:
	.loc	6 1072 5 is_stmt 1
	movq	_ZN4core9panicking15panic_no_unwind17h67cac67fd9fa30d7E@GOTPCREL(%rip), %rax
	callq	*%rax
	ud2
.Ltmp360:
.LBB127_8:
	movq	48(%rsp), %rdi
	callq	_Unwind_Resume@PLT
	ud2
.Ltmp361:
.Lfunc_end127:
	.size	_ZN4core6result19Result$LT$T$C$E$GT$6unwrap17h4e596fef6439c5c3E, .Lfunc_end127-_ZN4core6result19Result$LT$T$C$E$GT$6unwrap17h4e596fef6439c5c3E
	.cfi_endproc
	.section	".gcc_except_table._ZN4core6result19Result$LT$T$C$E$GT$6unwrap17h4e596fef6439c5c3E","a",@progbits
	.p2align	2
GCC_except_table127:
.Lexception6:
	.byte	255
	.byte	255
	.byte	1
	.uleb128 .Lcst_end6-.Lcst_begin6
.Lcst_begin6:
	.uleb128 .Ltmp342-.Lfunc_begin127
	.uleb128 .Ltmp343-.Ltmp342
	.uleb128 .Ltmp344-.Lfunc_begin127
	.byte	0
	.uleb128 .Ltmp345-.Lfunc_begin127
	.uleb128 .Ltmp346-.Ltmp345
	.uleb128 .Ltmp347-.Lfunc_begin127
	.byte	0
	.uleb128 .Ltmp346-.Lfunc_begin127
	.uleb128 .Lfunc_end127-.Ltmp346
	.byte	0
	.byte	0
.Lcst_end6:
	.p2align	2

	.section	".text._ZN4core6result19Result$LT$T$C$E$GT$6unwrap17haff65425f0cd9d1eE","ax",@progbits
	.p2align	4, 0x90
	.type	_ZN4core6result19Result$LT$T$C$E$GT$6unwrap17haff65425f0cd9d1eE,@function
_ZN4core6result19Result$LT$T$C$E$GT$6unwrap17haff65425f0cd9d1eE:
.Lfunc_begin128:
	.loc	6 1072 0
	.cfi_startproc
	.cfi_personality 155, DW.ref.rust_eh_personality
	.cfi_lsda 27, .Lexception7
	subq	$72, %rsp
	.cfi_def_cfa_offset 80
	movq	%rdi, (%rsp)
.Ltmp368:
	movq	%rsi, 8(%rsp)
.Ltmp369:
	.loc	6 1076 15 prologue_end
	movq	(%rdi), %rax
	.loc	6 1076 9 is_stmt 0
	testq	%rax, %rax
.Ltmp370:
	je	.LBB128_2
	jmp	.LBB128_9
.Ltmp371:
.LBB128_9:
	jmp	.LBB128_3
.Ltmp372:
	.cfi_def_cfa_offset 8
	.loc	6 1076 15
	ud2
.LBB128_2:
	.cfi_def_cfa_offset 80
.Ltmp373:
	.loc	6 0 15
	movq	(%rsp), %rax
	.loc	6 1077 16 is_stmt 1
	movq	8(%rax), %rax
	movq	%rax, 64(%rsp)
	.loc	6 1080 6
	addq	$72, %rsp
	.cfi_def_cfa_offset 8
	retq
.Ltmp374:
.LBB128_3:
	.cfi_def_cfa_offset 80
	.loc	6 0 6 is_stmt 0
	movq	8(%rsp), %r8
	movq	(%rsp), %rax
	.loc	6 1078 17 is_stmt 1
	movq	24(%rax), %rcx
	movq	%rcx, 32(%rsp)
	movups	8(%rax), %xmm0
	movaps	%xmm0, 16(%rsp)
.Ltmp362:
.Ltmp375:
	.loc	6 1078 23 is_stmt 0
	leaq	.L__unnamed_4(%rip), %rdi
	leaq	.L__unnamed_2(%rip), %rcx
	movq	_ZN4core6result13unwrap_failed17h19cc7fb9989ff5e1E@GOTPCREL(%rip), %rax
	movl	$43, %esi
	leaq	16(%rsp), %rdx
	callq	*%rax
.Ltmp363:
	jmp	.LBB128_6
.Ltmp376:
.LBB128_4:
.Ltmp365:
	.loc	6 0 23
	leaq	16(%rsp), %rdi
	.loc	6 1078 86
	callq	_ZN4core3ptr42drop_in_place$LT$alloc..string..String$GT$17h3d54115ed9f56dfeE
.Ltmp366:
	jmp	.LBB128_8
.Ltmp377:
.LBB128_5:
.Ltmp364:
	.loc	6 0 86
	movq	%rax, %rcx
	movl	%edx, %eax
	movq	%rcx, 48(%rsp)
	movl	%eax, 56(%rsp)
	jmp	.LBB128_4
.Ltmp378:
.LBB128_6:
	ud2
.Ltmp379:
.LBB128_7:
.Ltmp367:
	.loc	6 1072 5 is_stmt 1
	movq	_ZN4core9panicking15panic_no_unwind17h67cac67fd9fa30d7E@GOTPCREL(%rip), %rax
	callq	*%rax
	ud2
.Ltmp380:
.LBB128_8:
	movq	48(%rsp), %rdi
	callq	_Unwind_Resume@PLT
	ud2
.Ltmp381:
.Lfunc_end128:
	.size	_ZN4core6result19Result$LT$T$C$E$GT$6unwrap17haff65425f0cd9d1eE, .Lfunc_end128-_ZN4core6result19Result$LT$T$C$E$GT$6unwrap17haff65425f0cd9d1eE
	.cfi_endproc
	.section	".gcc_except_table._ZN4core6result19Result$LT$T$C$E$GT$6unwrap17haff65425f0cd9d1eE","a",@progbits
	.p2align	2
GCC_except_table128:
.Lexception7:
	.byte	255
	.byte	255
	.byte	1
	.uleb128 .Lcst_end7-.Lcst_begin7
.Lcst_begin7:
	.uleb128 .Ltmp362-.Lfunc_begin128
	.uleb128 .Ltmp363-.Ltmp362
	.uleb128 .Ltmp364-.Lfunc_begin128
	.byte	0
	.uleb128 .Ltmp365-.Lfunc_begin128
	.uleb128 .Ltmp366-.Ltmp365
	.uleb128 .Ltmp367-.Lfunc_begin128
	.byte	0
	.uleb128 .Ltmp366-.Lfunc_begin128
	.uleb128 .Lfunc_end128-.Ltmp366
	.byte	0
	.byte	0
.Lcst_end7:
	.p2align	2

	.section	".text._ZN4core6result19Result$LT$T$C$E$GT$7map_err17h6017c4f3522fa53aE","ax",@progbits
	.p2align	4, 0x90
	.type	_ZN4core6result19Result$LT$T$C$E$GT$7map_err17h6017c4f3522fa53aE,@function
_ZN4core6result19Result$LT$T$C$E$GT$7map_err17h6017c4f3522fa53aE:
.Lfunc_begin129:
	.loc	6 852 0
	.cfi_startproc
	subq	$104, %rsp
	.cfi_def_cfa_offset 112
	movq	%rcx, 24(%rsp)
	movq	%rdi, 32(%rsp)
	movq	%rdi, 40(%rsp)
	movq	%rsi, 48(%rsp)
	movq	%rdx, 56(%rsp)
	movq	%rcx, 72(%rsp)
.Ltmp382:
	.loc	6 853 15 prologue_end
	movb	$0, 71(%rsp)
	movb	$1, 71(%rsp)
	movq	48(%rsp), %rax
	testq	%rax, %rax
	sete	%al
	movzbl	%al, %eax
	.loc	6 853 9 is_stmt 0
	jne	.LBB129_2
	jmp	.LBB129_8
.LBB129_8:
	jmp	.LBB129_3
	.cfi_def_cfa_offset 8
	.loc	6 853 15
	ud2
.LBB129_2:
	.cfi_def_cfa_offset 112
	.loc	6 0 15
	movq	32(%rsp), %rax
	.loc	6 854 16 is_stmt 1
	movq	48(%rsp), %rdx
	movq	56(%rsp), %rcx
	movq	%rdx, 88(%rsp)
	movq	%rcx, 96(%rsp)
.Ltmp383:
	.loc	6 854 22 is_stmt 0
	movq	%rdx, 8(%rax)
	movq	%rcx, 16(%rax)
	movq	$0, (%rax)
.Ltmp384:
	.loc	6 854 26
	jmp	.LBB129_5
.LBB129_3:
	.loc	6 0 26
	movq	24(%rsp), %rdi
.Ltmp385:
	.loc	6 855 27 is_stmt 1
	movb	$0, 71(%rsp)
	callq	_ZN5alloc7raw_vec11finish_grow28_$u7b$$u7b$closure$u7d$$u7d$17h0148822f73280628E
	movq	%rax, 8(%rsp)
	movq	%rdx, 16(%rsp)
	.loc	6 0 27 is_stmt 0
	movq	32(%rsp), %rax
	movq	16(%rsp), %rcx
	movq	8(%rsp), %rdx
	.loc	6 855 23
	movq	%rdx, 8(%rax)
	movq	%rcx, 16(%rax)
	movq	$1, (%rax)
.Ltmp386:
.LBB129_5:
	.loc	6 857 5 is_stmt 1
	testb	$1, 71(%rsp)
	jne	.LBB129_7
.LBB129_6:
	.loc	6 0 5 is_stmt 0
	movq	40(%rsp), %rax
	.loc	6 857 6
	addq	$104, %rsp
	.cfi_def_cfa_offset 8
	retq
.LBB129_7:
	.cfi_def_cfa_offset 112
	.loc	6 857 5
	jmp	.LBB129_6
.Ltmp387:
.Lfunc_end129:
	.size	_ZN4core6result19Result$LT$T$C$E$GT$7map_err17h6017c4f3522fa53aE, .Lfunc_end129-_ZN4core6result19Result$LT$T$C$E$GT$7map_err17h6017c4f3522fa53aE
	.cfi_endproc

	.section	".text._ZN4core6result19Result$LT$T$C$E$GT$7map_err17hbc9b13574c60c0aeE","ax",@progbits
	.p2align	4, 0x90
	.type	_ZN4core6result19Result$LT$T$C$E$GT$7map_err17hbc9b13574c60c0aeE,@function
_ZN4core6result19Result$LT$T$C$E$GT$7map_err17hbc9b13574c60c0aeE:
.Lfunc_begin130:
	.loc	6 852 0 is_stmt 1
	.cfi_startproc
	subq	$88, %rsp
	.cfi_def_cfa_offset 96
	movq	%rdi, 16(%rsp)
	movq	%rdi, 24(%rsp)
	movq	%rsi, 32(%rsp)
	movq	%rdx, 40(%rsp)
.Ltmp388:
	.loc	6 853 15 prologue_end
	movb	$0, 55(%rsp)
	movb	$1, 55(%rsp)
	movq	40(%rsp), %rax
	testq	%rax, %rax
	sete	%al
	movzbl	%al, %eax
	.loc	6 853 9 is_stmt 0
	jne	.LBB130_2
	jmp	.LBB130_8
.LBB130_8:
	jmp	.LBB130_3
	.cfi_def_cfa_offset 8
	.loc	6 853 15
	ud2
.LBB130_2:
	.cfi_def_cfa_offset 96
	.loc	6 0 15
	movq	16(%rsp), %rax
	.loc	6 854 16 is_stmt 1
	movq	32(%rsp), %rdx
	movq	40(%rsp), %rcx
	movq	%rdx, 72(%rsp)
	movq	%rcx, 80(%rsp)
.Ltmp389:
	.loc	6 854 22 is_stmt 0
	movq	%rdx, 8(%rax)
	movq	%rcx, 16(%rax)
	movq	$0, (%rax)
.Ltmp390:
	.loc	6 854 26
	jmp	.LBB130_5
.LBB130_3:
.Ltmp391:
	.loc	6 855 27 is_stmt 1
	movb	$0, 55(%rsp)
	callq	_ZN5alloc7raw_vec11finish_grow28_$u7b$$u7b$closure$u7d$$u7d$17hd18d189acdcaed39E
	movq	%rax, (%rsp)
	movq	%rdx, 8(%rsp)
	.loc	6 0 27 is_stmt 0
	movq	16(%rsp), %rax
	movq	8(%rsp), %rcx
	movq	(%rsp), %rdx
	.loc	6 855 23
	movq	%rdx, 8(%rax)
	movq	%rcx, 16(%rax)
	movq	$1, (%rax)
.Ltmp392:
.LBB130_5:
	.loc	6 857 5 is_stmt 1
	testb	$1, 55(%rsp)
	jne	.LBB130_7
.LBB130_6:
	.loc	6 0 5 is_stmt 0
	movq	24(%rsp), %rax
	.loc	6 857 6
	addq	$88, %rsp
	.cfi_def_cfa_offset 8
	retq
.LBB130_7:
	.cfi_def_cfa_offset 96
	.loc	6 857 5
	jmp	.LBB130_6
.Ltmp393:
.Lfunc_end130:
	.size	_ZN4core6result19Result$LT$T$C$E$GT$7map_err17hbc9b13574c60c0aeE, .Lfunc_end130-_ZN4core6result19Result$LT$T$C$E$GT$7map_err17hbc9b13574c60c0aeE
	.cfi_endproc

	.section	".text._ZN4core6result19Result$LT$T$C$E$GT$7map_err17he2f5af5991d7caabE","ax",@progbits
	.p2align	4, 0x90
	.type	_ZN4core6result19Result$LT$T$C$E$GT$7map_err17he2f5af5991d7caabE,@function
_ZN4core6result19Result$LT$T$C$E$GT$7map_err17he2f5af5991d7caabE:
.Lfunc_begin131:
	.loc	6 852 0 is_stmt 1
	.cfi_startproc
	subq	$104, %rsp
	.cfi_def_cfa_offset 112
	movq	%rdi, 16(%rsp)
	movq	%rsi, 24(%rsp)
.Ltmp394:
	.loc	6 853 15 prologue_end
	movb	$0, 71(%rsp)
	movb	$1, 71(%rsp)
	movq	24(%rsp), %rax
	movabsq	$9223372036854775807, %rcx
	addq	%rcx, %rax
	setne	%al
	movzbl	%al, %eax
	.loc	6 853 9 is_stmt 0
	je	.LBB131_2
	jmp	.LBB131_8
.LBB131_8:
	jmp	.LBB131_3
	.cfi_def_cfa_offset 8
	.loc	6 853 15
	ud2
.LBB131_2:
	.cfi_def_cfa_offset 112
.Ltmp395:
	.loc	6 854 22 is_stmt 1
	movabsq	$-9223372036854775807, %rax
	movq	%rax, 40(%rsp)
.Ltmp396:
	.loc	6 854 26 is_stmt 0
	jmp	.LBB131_5
.LBB131_3:
	.loc	6 855 17 is_stmt 1
	movq	16(%rsp), %rcx
	movq	24(%rsp), %rax
	movq	%rcx, 88(%rsp)
	movq	%rax, 96(%rsp)
.Ltmp397:
	.loc	6 855 27 is_stmt 0
	movb	$0, 71(%rsp)
	movq	%rcx, 48(%rsp)
	movq	%rax, 56(%rsp)
	movq	48(%rsp), %rdi
	movq	56(%rsp), %rsi
	callq	_ZN5alloc7raw_vec14handle_reserve28_$u7b$$u7b$closure$u7d$$u7d$17h401803e1a4378ce4E
	movq	%rax, (%rsp)
	movq	%rdx, 8(%rsp)
	.loc	6 0 27
	movq	8(%rsp), %rax
	movq	(%rsp), %rcx
	.loc	6 855 23
	movq	%rcx, 32(%rsp)
	movq	%rax, 40(%rsp)
.Ltmp398:
.LBB131_5:
	.loc	6 857 5 is_stmt 1
	testb	$1, 71(%rsp)
	jne	.LBB131_7
.LBB131_6:
	.loc	6 857 6 is_stmt 0
	movq	32(%rsp), %rax
	movq	40(%rsp), %rdx
	addq	$104, %rsp
	.cfi_def_cfa_offset 8
	retq
.LBB131_7:
	.cfi_def_cfa_offset 112
	.loc	6 857 5
	jmp	.LBB131_6
.Ltmp399:
.Lfunc_end131:
	.size	_ZN4core6result19Result$LT$T$C$E$GT$7map_err17he2f5af5991d7caabE, .Lfunc_end131-_ZN4core6result19Result$LT$T$C$E$GT$7map_err17he2f5af5991d7caabE
	.cfi_endproc

	.section	".text._ZN50_$LT$T$u20$as$u20$core..convert..From$LT$T$GT$$GT$4from17h22aa42c111bf8ec1E","ax",@progbits
	.p2align	4, 0x90
	.type	_ZN50_$LT$T$u20$as$u20$core..convert..From$LT$T$GT$$GT$4from17h22aa42c111bf8ec1E,@function
_ZN50_$LT$T$u20$as$u20$core..convert..From$LT$T$GT$$GT$4from17h22aa42c111bf8ec1E:
.Lfunc_begin132:
	.file	34 "/builddir/build/BUILD/rustc-1.62.1-src/library/core/src/convert/mod.rs"
	.loc	34 559 0 is_stmt 1
	.cfi_startproc
	pushq	%rax
	.cfi_def_cfa_offset 16
.Ltmp400:
	.loc	34 561 6 prologue_end
	popq	%rax
	.cfi_def_cfa_offset 8
	retq
.Ltmp401:
.Lfunc_end132:
	.size	_ZN50_$LT$T$u20$as$u20$core..convert..From$LT$T$GT$$GT$4from17h22aa42c111bf8ec1E, .Lfunc_end132-_ZN50_$LT$T$u20$as$u20$core..convert..From$LT$T$GT$$GT$4from17h22aa42c111bf8ec1E
	.cfi_endproc

	.section	".text._ZN50_$LT$T$u20$as$u20$core..convert..From$LT$T$GT$$GT$4from17h4a5443f0a81aec6cE","ax",@progbits
	.p2align	4, 0x90
	.type	_ZN50_$LT$T$u20$as$u20$core..convert..From$LT$T$GT$$GT$4from17h4a5443f0a81aec6cE,@function
_ZN50_$LT$T$u20$as$u20$core..convert..From$LT$T$GT$$GT$4from17h4a5443f0a81aec6cE:
.Lfunc_begin133:
	.loc	34 559 0
	.cfi_startproc
	pushq	%rax
	.cfi_def_cfa_offset 16
.Ltmp402:
	.loc	34 561 6 prologue_end
	popq	%rax
	.cfi_def_cfa_offset 8
	retq
.Ltmp403:
.Lfunc_end133:
	.size	_ZN50_$LT$T$u20$as$u20$core..convert..From$LT$T$GT$$GT$4from17h4a5443f0a81aec6cE, .Lfunc_end133-_ZN50_$LT$T$u20$as$u20$core..convert..From$LT$T$GT$$GT$4from17h4a5443f0a81aec6cE
	.cfi_endproc

	.section	".text._ZN50_$LT$T$u20$as$u20$core..convert..From$LT$T$GT$$GT$4from17h9aab347ec666887fE","ax",@progbits
	.p2align	4, 0x90
	.type	_ZN50_$LT$T$u20$as$u20$core..convert..From$LT$T$GT$$GT$4from17h9aab347ec666887fE,@function
_ZN50_$LT$T$u20$as$u20$core..convert..From$LT$T$GT$$GT$4from17h9aab347ec666887fE:
.Lfunc_begin134:
	.loc	34 559 0
	.cfi_startproc
	subq	$16, %rsp
	.cfi_def_cfa_offset 24
	movq	%rsi, %rdx
	movq	%rdi, %rax
	movq	%rax, (%rsp)
	movq	%rdx, 8(%rsp)
.Ltmp404:
	.loc	34 561 6 prologue_end
	addq	$16, %rsp
	.cfi_def_cfa_offset 8
	retq
.Ltmp405:
.Lfunc_end134:
	.size	_ZN50_$LT$T$u20$as$u20$core..convert..From$LT$T$GT$$GT$4from17h9aab347ec666887fE, .Lfunc_end134-_ZN50_$LT$T$u20$as$u20$core..convert..From$LT$T$GT$$GT$4from17h9aab347ec666887fE
	.cfi_endproc

	.section	".text._ZN50_$LT$T$u20$as$u20$core..convert..Into$LT$U$GT$$GT$4into17hc3565ee45a3c9d56E","ax",@progbits
	.p2align	4, 0x90
	.type	_ZN50_$LT$T$u20$as$u20$core..convert..Into$LT$U$GT$$GT$4into17hc3565ee45a3c9d56E,@function
_ZN50_$LT$T$u20$as$u20$core..convert..Into$LT$U$GT$$GT$4into17hc3565ee45a3c9d56E:
.Lfunc_begin135:
	.loc	34 549 0
	.cfi_startproc
	subq	$24, %rsp
	.cfi_def_cfa_offset 32
	movq	%rdi, 16(%rsp)
.Ltmp406:
	.loc	34 550 9 prologue_end
	callq	_ZN119_$LT$core..ptr..non_null..NonNull$LT$T$GT$$u20$as$u20$core..convert..From$LT$core..ptr..unique..Unique$LT$T$GT$$GT$$GT$4from17h1ca6195793ac1f0cE
	movq	%rax, 8(%rsp)
	.loc	34 0 9 is_stmt 0
	movq	8(%rsp), %rax
	.loc	34 551 6 is_stmt 1
	addq	$24, %rsp
	.cfi_def_cfa_offset 8
	retq
.Ltmp407:
.Lfunc_end135:
	.size	_ZN50_$LT$T$u20$as$u20$core..convert..Into$LT$U$GT$$GT$4into17hc3565ee45a3c9d56E, .Lfunc_end135-_ZN50_$LT$T$u20$as$u20$core..convert..Into$LT$U$GT$$GT$4into17hc3565ee45a3c9d56E
	.cfi_endproc

	.section	".text._ZN50_$LT$T$u20$as$u20$core..convert..Into$LT$U$GT$$GT$4into17he3d0fb3d175f9c53E","ax",@progbits
	.p2align	4, 0x90
	.type	_ZN50_$LT$T$u20$as$u20$core..convert..Into$LT$U$GT$$GT$4into17he3d0fb3d175f9c53E,@function
_ZN50_$LT$T$u20$as$u20$core..convert..Into$LT$U$GT$$GT$4into17he3d0fb3d175f9c53E:
.Lfunc_begin136:
	.loc	34 549 0
	.cfi_startproc
	subq	$24, %rsp
	.cfi_def_cfa_offset 32
	movq	%rdi, %rax
	movq	%rax, (%rsp)
	movq	%rsi, 8(%rsp)
	movq	%rdx, 16(%rsp)
.Ltmp408:
	.loc	34 550 9 prologue_end
	callq	_ZN76_$LT$alloc..string..String$u20$as$u20$core..convert..From$LT$$RF$str$GT$$GT$4from17h14eb4c1cc3d610eaE
	.loc	34 0 9 is_stmt 0
	movq	(%rsp), %rax
	.loc	34 551 6 is_stmt 1
	addq	$24, %rsp
	.cfi_def_cfa_offset 8
	retq
.Ltmp409:
.Lfunc_end136:
	.size	_ZN50_$LT$T$u20$as$u20$core..convert..Into$LT$U$GT$$GT$4into17he3d0fb3d175f9c53E, .Lfunc_end136-_ZN50_$LT$T$u20$as$u20$core..convert..Into$LT$U$GT$$GT$4into17he3d0fb3d175f9c53E
	.cfi_endproc

	.section	".text._ZN50_$LT$T$u20$as$u20$core..convert..Into$LT$U$GT$$GT$4into17hef3fc054d3f26766E","ax",@progbits
	.p2align	4, 0x90
	.type	_ZN50_$LT$T$u20$as$u20$core..convert..Into$LT$U$GT$$GT$4into17hef3fc054d3f26766E,@function
_ZN50_$LT$T$u20$as$u20$core..convert..Into$LT$U$GT$$GT$4into17hef3fc054d3f26766E:
.Lfunc_begin137:
	.loc	34 549 0
	.cfi_startproc
	subq	$40, %rsp
	.cfi_def_cfa_offset 48
	movq	%rdi, 24(%rsp)
	movq	%rsi, 32(%rsp)
.Ltmp410:
	.loc	34 550 9 prologue_end
	callq	_ZN122_$LT$alloc..collections..TryReserveError$u20$as$u20$core..convert..From$LT$alloc..collections..TryReserveErrorKind$GT$$GT$4from17hf2dcbfd2e9990559E
	movq	%rax, 8(%rsp)
	movq	%rdx, 16(%rsp)
	.loc	34 0 9 is_stmt 0
	movq	16(%rsp), %rdx
	movq	8(%rsp), %rax
	.loc	34 551 6 is_stmt 1
	addq	$40, %rsp
	.cfi_def_cfa_offset 8
	retq
.Ltmp411:
.Lfunc_end137:
	.size	_ZN50_$LT$T$u20$as$u20$core..convert..Into$LT$U$GT$$GT$4into17hef3fc054d3f26766E, .Lfunc_end137-_ZN50_$LT$T$u20$as$u20$core..convert..Into$LT$U$GT$$GT$4into17hef3fc054d3f26766E
	.cfi_endproc

	.section	".text._ZN52_$LT$T$u20$as$u20$alloc..slice..hack..ConvertVec$GT$6to_vec17h438fd5d1ff4c2576E","ax",@progbits
	.p2align	4, 0x90
	.type	_ZN52_$LT$T$u20$as$u20$alloc..slice..hack..ConvertVec$GT$6to_vec17h438fd5d1ff4c2576E,@function
_ZN52_$LT$T$u20$as$u20$alloc..slice..hack..ConvertVec$GT$6to_vec17h438fd5d1ff4c2576E:
.Lfunc_begin138:
	.file	35 "/builddir/build/BUILD/rustc-1.62.1-src/library/alloc/src/slice.rs"
	.loc	35 226 0
	.cfi_startproc
	.cfi_personality 155, DW.ref.rust_eh_personality
	.cfi_lsda 27, .Lexception8
	subq	$120, %rsp
	.cfi_def_cfa_offset 128
	movq	%rdx, 32(%rsp)
	movq	%rsi, %rax
	movq	32(%rsp), %rsi
	movq	%rax, 40(%rsp)
	movq	%rdi, %rax
	movq	40(%rsp), %rdi
	movq	%rax, 48(%rsp)
	movq	%rax, 56(%rsp)
	movq	%rdi, 80(%rsp)
	movq	%rsi, 88(%rsp)
.Ltmp433:
	.loc	35 227 17 prologue_end
	movb	$0, 79(%rsp)
	movb	$1, 79(%rsp)
.Ltmp412:
	.loc	35 227 47 is_stmt 0
	callq	_ZN4core5slice29_$LT$impl$u20$$u5b$T$u5d$$GT$3len17hac80f6f6122cb9edE
.Ltmp413:
	movq	%rax, 64(%rsp)
	jmp	.LBB138_3
.LBB138_1:
	.loc	35 236 9 is_stmt 1
	testb	$1, 79(%rsp)
	jne	.LBB138_15
	jmp	.LBB138_14
.LBB138_2:
.Ltmp416:
	.loc	35 0 9 is_stmt 0
	movq	%rax, %rcx
	movl	%edx, %eax
	movq	%rcx, 104(%rsp)
	movl	%eax, 112(%rsp)
	jmp	.LBB138_1
.LBB138_3:
	movq	64(%rsp), %rsi
	movq	48(%rsp), %rdi
	.loc	35 227 56 is_stmt 1
	movb	$0, 79(%rsp)
.Ltmp414:
	.loc	35 227 25 is_stmt 0
	callq	_ZN5alloc3vec16Vec$LT$T$C$A$GT$16with_capacity_in17h9e41b97fb74a1d06E
.Ltmp415:
	jmp	.LBB138_4
.LBB138_4:
.Ltmp417:
	.loc	35 0 25
	movq	32(%rsp), %rsi
	movq	40(%rsp), %rdi
.Ltmp434:
	.loc	35 232 17 is_stmt 1
	callq	_ZN4core5slice29_$LT$impl$u20$$u5b$T$u5d$$GT$6as_ptr17h74c60431859de506E
.Ltmp418:
	movq	%rax, 24(%rsp)
	jmp	.LBB138_7
.Ltmp435:
.LBB138_5:
.Ltmp430:
	.loc	35 0 17 is_stmt 0
	movq	48(%rsp), %rdi
	.loc	35 236 9 is_stmt 1
	callq	_ZN4core3ptr46drop_in_place$LT$alloc..vec..Vec$LT$u8$GT$$GT$17h9f4617415a14e54eE
.Ltmp431:
	jmp	.LBB138_1
.LBB138_6:
.Ltmp429:
	.loc	35 0 9 is_stmt 0
	movq	%rax, %rcx
	movl	%edx, %eax
	movq	%rcx, 104(%rsp)
	movl	%eax, 112(%rsp)
	jmp	.LBB138_5
.LBB138_7:
.Ltmp419:
	movq	48(%rsp), %rdi
.Ltmp436:
	.loc	35 232 51 is_stmt 1
	callq	_ZN5alloc3vec16Vec$LT$T$C$A$GT$10as_mut_ptr17h5b24154774acbfacE
.Ltmp420:
	movq	%rax, 16(%rsp)
	jmp	.LBB138_8
.LBB138_8:
.Ltmp421:
	.loc	35 0 51 is_stmt 0
	movq	32(%rsp), %rsi
	movq	40(%rsp), %rdi
	.loc	35 232 67
	callq	_ZN4core5slice29_$LT$impl$u20$$u5b$T$u5d$$GT$3len17hac80f6f6122cb9edE
.Ltmp422:
	movq	%rax, 8(%rsp)
	jmp	.LBB138_9
.LBB138_9:
.Ltmp423:
	.loc	35 0 67
	movq	8(%rsp), %rdx
	movq	16(%rsp), %rsi
	movq	24(%rsp), %rdi
	.loc	35 232 17
	callq	_ZN4core3ptr9const_ptr33_$LT$impl$u20$$BP$const$u20$T$GT$22copy_to_nonoverlapping17h1d1c97f7c71e1510E
.Ltmp424:
	jmp	.LBB138_10
.LBB138_10:
.Ltmp425:
	.loc	35 0 17
	movq	32(%rsp), %rsi
	movq	40(%rsp), %rdi
	.loc	35 233 27 is_stmt 1
	callq	_ZN4core5slice29_$LT$impl$u20$$u5b$T$u5d$$GT$3len17hac80f6f6122cb9edE
.Ltmp426:
	movq	%rax, (%rsp)
	jmp	.LBB138_11
.LBB138_11:
.Ltmp427:
	.loc	35 0 27 is_stmt 0
	movq	(%rsp), %rsi
	movq	48(%rsp), %rdi
	.loc	35 233 17
	callq	_ZN5alloc3vec16Vec$LT$T$C$A$GT$7set_len17h9a0c861ac836aff6E
.Ltmp428:
	jmp	.LBB138_12
.Ltmp437:
.LBB138_12:
	.loc	35 0 17
	movq	56(%rsp), %rax
	.loc	35 236 10 is_stmt 1
	addq	$120, %rsp
	.cfi_def_cfa_offset 8
	retq
.LBB138_13:
	.cfi_def_cfa_offset 128
.Ltmp432:
	.loc	35 226 9
	movq	_ZN4core9panicking15panic_no_unwind17h67cac67fd9fa30d7E@GOTPCREL(%rip), %rax
	callq	*%rax
	ud2
.LBB138_14:
	movq	104(%rsp), %rdi
	callq	_Unwind_Resume@PLT
	ud2
.LBB138_15:
	.loc	35 236 9
	jmp	.LBB138_14
.Ltmp438:
.Lfunc_end138:
	.size	_ZN52_$LT$T$u20$as$u20$alloc..slice..hack..ConvertVec$GT$6to_vec17h438fd5d1ff4c2576E, .Lfunc_end138-_ZN52_$LT$T$u20$as$u20$alloc..slice..hack..ConvertVec$GT$6to_vec17h438fd5d1ff4c2576E
	.cfi_endproc
	.section	".gcc_except_table._ZN52_$LT$T$u20$as$u20$alloc..slice..hack..ConvertVec$GT$6to_vec17h438fd5d1ff4c2576E","a",@progbits
	.p2align	2
GCC_except_table138:
.Lexception8:
	.byte	255
	.byte	255
	.byte	1
	.uleb128 .Lcst_end8-.Lcst_begin8
.Lcst_begin8:
	.uleb128 .Ltmp412-.Lfunc_begin138
	.uleb128 .Ltmp415-.Ltmp412
	.uleb128 .Ltmp416-.Lfunc_begin138
	.byte	0
	.uleb128 .Ltmp417-.Lfunc_begin138
	.uleb128 .Ltmp418-.Ltmp417
	.uleb128 .Ltmp429-.Lfunc_begin138
	.byte	0
	.uleb128 .Ltmp430-.Lfunc_begin138
	.uleb128 .Ltmp431-.Ltmp430
	.uleb128 .Ltmp432-.Lfunc_begin138
	.byte	0
	.uleb128 .Ltmp419-.Lfunc_begin138
	.uleb128 .Ltmp428-.Ltmp419
	.uleb128 .Ltmp429-.Lfunc_begin138
	.byte	0
	.uleb128 .Ltmp428-.Lfunc_begin138
	.uleb128 .Lfunc_end138-.Ltmp428
	.byte	0
	.byte	0
.Lcst_end8:
	.p2align	2

	.section	".text._ZN54_$LT$$LP$$RP$$u20$as$u20$std..process..Termination$GT$6report17h02b669f65bd99e18E","ax",@progbits
	.p2align	4, 0x90
	.type	_ZN54_$LT$$LP$$RP$$u20$as$u20$std..process..Termination$GT$6report17h02b669f65bd99e18E,@function
_ZN54_$LT$$LP$$RP$$u20$as$u20$std..process..Termination$GT$6report17h02b669f65bd99e18E:
.Lfunc_begin139:
	.loc	12 2138 0
	.cfi_startproc
	subq	$24, %rsp
	.cfi_def_cfa_offset 32
.Ltmp439:
	.loc	12 2139 9 prologue_end
	xorl	%edi, %edi
	callq	_ZN68_$LT$std..process..ExitCode$u20$as$u20$std..process..Termination$GT$6report17hd305486654f64470E
	movb	%al, 15(%rsp)
	.loc	12 0 9 is_stmt 0
	movb	15(%rsp), %al
	.loc	12 2140 6 is_stmt 1
	addq	$24, %rsp
	.cfi_def_cfa_offset 8
	retq
.Ltmp440:
.Lfunc_end139:
	.size	_ZN54_$LT$$LP$$RP$$u20$as$u20$std..process..Termination$GT$6report17h02b669f65bd99e18E, .Lfunc_end139-_ZN54_$LT$$LP$$RP$$u20$as$u20$std..process..Termination$GT$6report17h02b669f65bd99e18E
	.cfi_endproc

	.section	".text._ZN58_$LT$alloc..string..String$u20$as$u20$core..fmt..Debug$GT$3fmt17hae8f2cf170bc4374E","ax",@progbits
	.p2align	4, 0x90
	.type	_ZN58_$LT$alloc..string..String$u20$as$u20$core..fmt..Debug$GT$3fmt17hae8f2cf170bc4374E,@function
_ZN58_$LT$alloc..string..String$u20$as$u20$core..fmt..Debug$GT$3fmt17hae8f2cf170bc4374E:
.Lfunc_begin140:
	.file	36 "/builddir/build/BUILD/rustc-1.62.1-src/library/alloc/src/string.rs"
	.loc	36 2226 0
	.cfi_startproc
	subq	$56, %rsp
	.cfi_def_cfa_offset 64
	movq	%rsi, 16(%rsp)
	movq	%rdi, 40(%rsp)
	movq	%rsi, 48(%rsp)
.Ltmp441:
	.loc	36 2227 26 prologue_end
	callq	_ZN65_$LT$alloc..string..String$u20$as$u20$core..ops..deref..Deref$GT$5deref17hded46feb3e58c4c6E
	movq	%rax, 24(%rsp)
	movq	%rdx, 32(%rsp)
	.loc	36 0 26 is_stmt 0
	movq	16(%rsp), %rdx
	movq	32(%rsp), %rsi
	movq	24(%rsp), %rdi
	.loc	36 2227 9
	callq	*_ZN40_$LT$str$u20$as$u20$core..fmt..Debug$GT$3fmt17he14d58063ac12396E@GOTPCREL(%rip)
	movb	%al, 15(%rsp)
	.loc	36 0 9
	movb	15(%rsp), %al
	.loc	36 2228 6 is_stmt 1
	andb	$1, %al
	movzbl	%al, %eax
	addq	$56, %rsp
	.cfi_def_cfa_offset 8
	retq
.Ltmp442:
.Lfunc_end140:
	.size	_ZN58_$LT$alloc..string..String$u20$as$u20$core..fmt..Debug$GT$3fmt17hae8f2cf170bc4374E, .Lfunc_end140-_ZN58_$LT$alloc..string..String$u20$as$u20$core..fmt..Debug$GT$3fmt17hae8f2cf170bc4374E
	.cfi_endproc

	.section	.text._ZN5alloc11collections15TryReserveError4kind17h4cba50361100989bE,"ax",@progbits
	.p2align	4, 0x90
	.type	_ZN5alloc11collections15TryReserveError4kind17h4cba50361100989bE,@function
_ZN5alloc11collections15TryReserveError4kind17h4cba50361100989bE:
.Lfunc_begin141:
	.loc	4 74 0
	.cfi_startproc
	subq	$24, %rsp
	.cfi_def_cfa_offset 32
	movq	%rdi, 16(%rsp)
.Ltmp443:
	.loc	4 75 9 prologue_end
	callq	_ZN78_$LT$alloc..collections..TryReserveErrorKind$u20$as$u20$core..clone..Clone$GT$5clone17h2fdf06b502a480e5E
	movq	%rax, (%rsp)
	movq	%rdx, 8(%rsp)
	.loc	4 0 9 is_stmt 0
	movq	8(%rsp), %rdx
	movq	(%rsp), %rax
	.loc	4 76 6 is_stmt 1
	addq	$24, %rsp
	.cfi_def_cfa_offset 8
	retq
.Ltmp444:
.Lfunc_end141:
	.size	_ZN5alloc11collections15TryReserveError4kind17h4cba50361100989bE, .Lfunc_end141-_ZN5alloc11collections15TryReserveError4kind17h4cba50361100989bE
	.cfi_endproc

	.section	".text._ZN5alloc3str56_$LT$impl$u20$alloc..borrow..ToOwned$u20$for$u20$str$GT$8to_owned17he839cc4398a9548fE","ax",@progbits
	.p2align	4, 0x90
	.type	_ZN5alloc3str56_$LT$impl$u20$alloc..borrow..ToOwned$u20$for$u20$str$GT$8to_owned17he839cc4398a9548fE,@function
_ZN5alloc3str56_$LT$impl$u20$alloc..borrow..ToOwned$u20$for$u20$str$GT$8to_owned17he839cc4398a9548fE:
.Lfunc_begin142:
	.file	37 "/builddir/build/BUILD/rustc-1.62.1-src/library/alloc/src/str.rs"
	.loc	37 226 0
	.cfi_startproc
	subq	$104, %rsp
	.cfi_def_cfa_offset 112
	movq	%rdi, (%rsp)
	movq	%rdi, 8(%rsp)
	movq	%rsi, 56(%rsp)
	movq	%rdx, 64(%rsp)
	movq	%rsi, 72(%rsp)
	movq	%rdx, 80(%rsp)
.Ltmp445:
	.loc	10 325 18 prologue_end
	movq	%rsi, 88(%rsp)
	movq	%rdx, 96(%rsp)
	movq	88(%rsp), %rax
	movq	%rax, 16(%rsp)
	movq	96(%rsp), %rax
	movq	%rax, 24(%rsp)
.Ltmp446:
	.loc	10 0 18 is_stmt 0
	movq	24(%rsp), %rdx
	movq	16(%rsp), %rsi
	.loc	37 227 46 is_stmt 1
	leaq	32(%rsp), %rdi
	callq	_ZN5alloc5slice64_$LT$impl$u20$alloc..borrow..ToOwned$u20$for$u20$$u5b$T$u5d$$GT$8to_owned17hac9bdbf8f05283e8E
	.loc	37 0 46 is_stmt 0
	movq	(%rsp), %rdi
	.loc	37 227 18
	leaq	32(%rsp), %rsi
	callq	_ZN5alloc6string6String19from_utf8_unchecked17hed3edfc814e790b3E
	.loc	37 0 18
	movq	8(%rsp), %rax
	.loc	37 228 6 is_stmt 1
	addq	$104, %rsp
	.cfi_def_cfa_offset 8
	retq
.Ltmp447:
.Lfunc_end142:
	.size	_ZN5alloc3str56_$LT$impl$u20$alloc..borrow..ToOwned$u20$for$u20$str$GT$8to_owned17he839cc4398a9548fE, .Lfunc_end142-_ZN5alloc3str56_$LT$impl$u20$alloc..borrow..ToOwned$u20$for$u20$str$GT$8to_owned17he839cc4398a9548fE
	.cfi_endproc

	.section	".text._ZN5alloc3vec12Vec$LT$T$GT$3new17h85e770e4ab60ab5dE","ax",@progbits
	.p2align	4, 0x90
	.type	_ZN5alloc3vec12Vec$LT$T$GT$3new17h85e770e4ab60ab5dE,@function
_ZN5alloc3vec12Vec$LT$T$GT$3new17h85e770e4ab60ab5dE:
.Lfunc_begin143:
	.file	38 "/builddir/build/BUILD/rustc-1.62.1-src/library/alloc/src/vec/mod.rs"
	.loc	38 424 0
	.cfi_startproc
	movq	%rdi, %rax
.Ltmp448:
	.loc	38 425 20 prologue_end
	movq	.L__unnamed_5(%rip), %rdx
	movq	.L__unnamed_5+8(%rip), %rcx
	.loc	38 425 9 is_stmt 0
	movq	%rdx, (%rdi)
	movq	%rcx, 8(%rdi)
	movq	$0, 16(%rdi)
	.loc	38 426 6 is_stmt 1
	retq
.Ltmp449:
.Lfunc_end143:
	.size	_ZN5alloc3vec12Vec$LT$T$GT$3new17h85e770e4ab60ab5dE, .Lfunc_end143-_ZN5alloc3vec12Vec$LT$T$GT$3new17h85e770e4ab60ab5dE
	.cfi_endproc

	.section	".text._ZN5alloc3vec16Vec$LT$T$C$A$GT$10as_mut_ptr17h5b24154774acbfacE","ax",@progbits
	.p2align	4, 0x90
	.type	_ZN5alloc3vec16Vec$LT$T$C$A$GT$10as_mut_ptr17h5b24154774acbfacE,@function
_ZN5alloc3vec16Vec$LT$T$C$A$GT$10as_mut_ptr17h5b24154774acbfacE:
.Lfunc_begin144:
	.loc	38 1173 0
	.cfi_startproc
	subq	$24, %rsp
	.cfi_def_cfa_offset 32
	movq	%rdi, 8(%rsp)
.Ltmp450:
	.loc	38 1176 19 prologue_end
	callq	_ZN5alloc7raw_vec19RawVec$LT$T$C$A$GT$3ptr17hddde3ed8e7f5368eE
	movq	%rax, (%rsp)
	movq	%rax, 16(%rsp)
	.loc	38 0 19 is_stmt 0
	movq	(%rsp), %rdi
.Ltmp451:
	.loc	38 1178 21 is_stmt 1
	callq	_ZN4core3ptr7mut_ptr31_$LT$impl$u20$$BP$mut$u20$T$GT$7is_null17hca2412bac0d5e5e1E
.Ltmp452:
	.loc	38 0 21 is_stmt 0
	movq	(%rsp), %rax
	.loc	38 1181 6 is_stmt 1
	addq	$24, %rsp
	.cfi_def_cfa_offset 8
	retq
.Ltmp453:
.Lfunc_end144:
	.size	_ZN5alloc3vec16Vec$LT$T$C$A$GT$10as_mut_ptr17h5b24154774acbfacE, .Lfunc_end144-_ZN5alloc3vec16Vec$LT$T$C$A$GT$10as_mut_ptr17h5b24154774acbfacE
	.cfi_endproc

	.section	".text._ZN5alloc3vec16Vec$LT$T$C$A$GT$10as_mut_ptr17h73d1735509227efeE","ax",@progbits
	.p2align	4, 0x90
	.type	_ZN5alloc3vec16Vec$LT$T$C$A$GT$10as_mut_ptr17h73d1735509227efeE,@function
_ZN5alloc3vec16Vec$LT$T$C$A$GT$10as_mut_ptr17h73d1735509227efeE:
.Lfunc_begin145:
	.loc	38 1173 0
	.cfi_startproc
	subq	$24, %rsp
	.cfi_def_cfa_offset 32
	movq	%rdi, 8(%rsp)
.Ltmp454:
	.loc	38 1176 19 prologue_end
	callq	_ZN5alloc7raw_vec19RawVec$LT$T$C$A$GT$3ptr17h827438fcc43efbe0E
	movq	%rax, (%rsp)
	movq	%rax, 16(%rsp)
	.loc	38 0 19 is_stmt 0
	movq	(%rsp), %rdi
.Ltmp455:
	.loc	38 1178 21 is_stmt 1
	callq	_ZN4core3ptr7mut_ptr31_$LT$impl$u20$$BP$mut$u20$T$GT$7is_null17h1b2023f4dbaf0a42E
.Ltmp456:
	.loc	38 0 21 is_stmt 0
	movq	(%rsp), %rax
	.loc	38 1181 6 is_stmt 1
	addq	$24, %rsp
	.cfi_def_cfa_offset 8
	retq
.Ltmp457:
.Lfunc_end145:
	.size	_ZN5alloc3vec16Vec$LT$T$C$A$GT$10as_mut_ptr17h73d1735509227efeE, .Lfunc_end145-_ZN5alloc3vec16Vec$LT$T$C$A$GT$10as_mut_ptr17h73d1735509227efeE
	.cfi_endproc

	.section	".text._ZN5alloc3vec16Vec$LT$T$C$A$GT$15append_elements17h2ab13abafe94b692E","ax",@progbits
	.p2align	4, 0x90
	.type	_ZN5alloc3vec16Vec$LT$T$C$A$GT$15append_elements17h2ab13abafe94b692E,@function
_ZN5alloc3vec16Vec$LT$T$C$A$GT$15append_elements17h2ab13abafe94b692E:
.Lfunc_begin146:
	.loc	38 1798 0
	.cfi_startproc
	subq	$152, %rsp
	.cfi_def_cfa_offset 160
	movq	%rdx, 40(%rsp)
	movq	%rsi, %rax
	movq	40(%rsp), %rsi
	movq	%rdi, 48(%rsp)
	movq	%rax, 56(%rsp)
	movq	%rsi, 64(%rsp)
	movq	%rdi, 72(%rsp)
	movq	%rax, 80(%rsp)
	movq	%rsi, 88(%rsp)
.Ltmp458:
	.loc	38 1799 30 prologue_end
	movq	%rsi, 96(%rsp)
.Ltmp459:
	.loc	38 1800 9
	callq	_ZN5alloc3vec16Vec$LT$T$C$A$GT$7reserve17hdfe19a726b704a2aE
	.loc	38 0 9 is_stmt 0
	movq	48(%rsp), %rdi
	.loc	38 1801 19 is_stmt 1
	callq	_ZN5alloc3vec16Vec$LT$T$C$A$GT$3len17hb52094b974e217caE
	movq	%rax, 32(%rsp)
	movq	%rax, 104(%rsp)
	.loc	38 0 19 is_stmt 0
	movq	48(%rsp), %rdi
	movq	56(%rsp), %rax
	movq	%rax, 16(%rsp)
.Ltmp460:
	.loc	38 1802 62 is_stmt 1
	callq	_ZN5alloc3vec16Vec$LT$T$C$A$GT$10as_mut_ptr17h5b24154774acbfacE
	movq	%rax, 24(%rsp)
	.loc	38 0 62 is_stmt 0
	movq	32(%rsp), %rcx
	movq	24(%rsp), %rax
	movq	%rax, 112(%rsp)
	movq	%rcx, 120(%rsp)
	movq	%rax, 128(%rsp)
	movq	%rcx, 136(%rsp)
.Ltmp461:
	.loc	22 467 18 is_stmt 1
	addq	%rcx, %rax
	movq	%rax, 144(%rsp)
	movq	144(%rsp), %rax
	movq	%rax, 8(%rsp)
.Ltmp462:
	.loc	22 0 18 is_stmt 0
	movq	64(%rsp), %rdx
	movq	8(%rsp), %rsi
	movq	16(%rsp), %rdi
	.loc	38 1802 18 is_stmt 1
	callq	_ZN4core10intrinsics19copy_nonoverlapping17h3b062fee7f2ce324E
	.loc	38 0 18 is_stmt 0
	movq	48(%rsp), %rax
	movq	64(%rsp), %rcx
	.loc	38 1803 9 is_stmt 1
	addq	16(%rax), %rcx
	movq	%rcx, 16(%rax)
.Ltmp463:
	.loc	38 1804 6
	addq	$152, %rsp
	.cfi_def_cfa_offset 8
	retq
.Ltmp464:
.Lfunc_end146:
	.size	_ZN5alloc3vec16Vec$LT$T$C$A$GT$15append_elements17h2ab13abafe94b692E, .Lfunc_end146-_ZN5alloc3vec16Vec$LT$T$C$A$GT$15append_elements17h2ab13abafe94b692E
	.cfi_endproc

	.section	".text._ZN5alloc3vec16Vec$LT$T$C$A$GT$16with_capacity_in17h9e41b97fb74a1d06E","ax",@progbits
	.p2align	4, 0x90
	.type	_ZN5alloc3vec16Vec$LT$T$C$A$GT$16with_capacity_in17h9e41b97fb74a1d06E,@function
_ZN5alloc3vec16Vec$LT$T$C$A$GT$16with_capacity_in17h9e41b97fb74a1d06E:
.Lfunc_begin147:
	.loc	38 614 0
	.cfi_startproc
	subq	$56, %rsp
	.cfi_def_cfa_offset 64
	movq	%rsi, (%rsp)
	movq	%rdi, %rax
	movq	(%rsp), %rdi
	movq	%rax, 8(%rsp)
	movq	%rax, 16(%rsp)
	movq	%rdi, 40(%rsp)
.Ltmp465:
	.loc	38 615 20 prologue_end
	callq	_ZN5alloc7raw_vec19RawVec$LT$T$C$A$GT$16with_capacity_in17ha9d17f52e7b9b060E
	movq	%rax, 24(%rsp)
	movq	%rdx, 32(%rsp)
	.loc	38 0 20 is_stmt 0
	movq	16(%rsp), %rax
	movq	8(%rsp), %rcx
	movq	32(%rsp), %rdx
	movq	24(%rsp), %rsi
	.loc	38 615 9
	movq	%rsi, (%rcx)
	movq	%rdx, 8(%rcx)
	movq	$0, 16(%rcx)
	.loc	38 616 6 is_stmt 1
	addq	$56, %rsp
	.cfi_def_cfa_offset 8
	retq
.Ltmp466:
.Lfunc_end147:
	.size	_ZN5alloc3vec16Vec$LT$T$C$A$GT$16with_capacity_in17h9e41b97fb74a1d06E, .Lfunc_end147-_ZN5alloc3vec16Vec$LT$T$C$A$GT$16with_capacity_in17h9e41b97fb74a1d06E
	.cfi_endproc

	.section	".text._ZN5alloc3vec16Vec$LT$T$C$A$GT$17extend_from_slice17h4864af79a0cf8d83E","ax",@progbits
	.p2align	4, 0x90
	.type	_ZN5alloc3vec16Vec$LT$T$C$A$GT$17extend_from_slice17h4864af79a0cf8d83E,@function
_ZN5alloc3vec16Vec$LT$T$C$A$GT$17extend_from_slice17h4864af79a0cf8d83E:
.Lfunc_begin148:
	.loc	38 2248 0
	.cfi_startproc
	subq	$72, %rsp
	.cfi_def_cfa_offset 80
	movq	%rdx, 8(%rsp)
	movq	%rsi, %rax
	movq	8(%rsp), %rsi
	movq	%rax, 16(%rsp)
	movq	%rdi, %rax
	movq	16(%rsp), %rdi
	movq	%rax, 24(%rsp)
	movq	%rax, 48(%rsp)
	movq	%rdi, 56(%rsp)
	movq	%rsi, 64(%rsp)
.Ltmp467:
	.loc	38 2249 26 prologue_end
	callq	_ZN4core5slice29_$LT$impl$u20$$u5b$T$u5d$$GT$4iter17h60d15971ab348cd5E
	movq	%rax, 32(%rsp)
	movq	%rdx, 40(%rsp)
	.loc	38 0 26 is_stmt 0
	movq	40(%rsp), %rdx
	movq	32(%rsp), %rsi
	movq	24(%rsp), %rdi
	.loc	38 2249 9
	callq	_ZN132_$LT$alloc..vec..Vec$LT$T$C$A$GT$$u20$as$u20$alloc..vec..spec_extend..SpecExtend$LT$$RF$T$C$core..slice..iter..Iter$LT$T$GT$$GT$$GT$11spec_extend17h746fdf1353795dc3E
	.loc	38 2250 6 is_stmt 1
	addq	$72, %rsp
	.cfi_def_cfa_offset 8
	retq
.Ltmp468:
.Lfunc_end148:
	.size	_ZN5alloc3vec16Vec$LT$T$C$A$GT$17extend_from_slice17h4864af79a0cf8d83E, .Lfunc_end148-_ZN5alloc3vec16Vec$LT$T$C$A$GT$17extend_from_slice17h4864af79a0cf8d83E
	.cfi_endproc

	.section	".text._ZN5alloc3vec16Vec$LT$T$C$A$GT$17from_raw_parts_in17h60a25914902ddcb1E","ax",@progbits
	.p2align	4, 0x90
	.type	_ZN5alloc3vec16Vec$LT$T$C$A$GT$17from_raw_parts_in17h60a25914902ddcb1E,@function
_ZN5alloc3vec16Vec$LT$T$C$A$GT$17from_raw_parts_in17h60a25914902ddcb1E:
.Lfunc_begin149:
	.loc	38 690 0
	.cfi_startproc
	subq	$88, %rsp
	.cfi_def_cfa_offset 96
	movq	%rcx, 8(%rsp)
	movq	%rdx, (%rsp)
	movq	%rsi, %rax
	movq	8(%rsp), %rsi
	movq	%rax, 16(%rsp)
	movq	%rdi, %rax
	movq	16(%rsp), %rdi
	movq	%rax, 24(%rsp)
	movq	%rax, 32(%rsp)
	movq	%rdi, 56(%rsp)
	movq	%rdx, 64(%rsp)
	movq	%rsi, 72(%rsp)
.Ltmp469:
	.loc	38 691 29 prologue_end
	callq	_ZN5alloc7raw_vec19RawVec$LT$T$C$A$GT$17from_raw_parts_in17h5dab13e3a07294efE
	movq	%rax, 40(%rsp)
	movq	%rdx, 48(%rsp)
	.loc	38 0 29 is_stmt 0
	movq	32(%rsp), %rax
	movq	24(%rsp), %rcx
	movq	(%rsp), %rdx
	movq	48(%rsp), %rsi
	movq	40(%rsp), %rdi
	.loc	38 691 18
	movq	%rdi, (%rcx)
	movq	%rsi, 8(%rcx)
	movq	%rdx, 16(%rcx)
	.loc	38 692 6 is_stmt 1
	addq	$88, %rsp
	.cfi_def_cfa_offset 8
	retq
.Ltmp470:
.Lfunc_end149:
	.size	_ZN5alloc3vec16Vec$LT$T$C$A$GT$17from_raw_parts_in17h60a25914902ddcb1E, .Lfunc_end149-_ZN5alloc3vec16Vec$LT$T$C$A$GT$17from_raw_parts_in17h60a25914902ddcb1E
	.cfi_endproc

	.section	".text._ZN5alloc3vec16Vec$LT$T$C$A$GT$3len17hb52094b974e217caE","ax",@progbits
	.p2align	4, 0x90
	.type	_ZN5alloc3vec16Vec$LT$T$C$A$GT$3len17hb52094b974e217caE,@function
_ZN5alloc3vec16Vec$LT$T$C$A$GT$3len17hb52094b974e217caE:
.Lfunc_begin150:
	.loc	38 1911 0
	.cfi_startproc
	pushq	%rax
	.cfi_def_cfa_offset 16
	movq	%rdi, (%rsp)
.Ltmp471:
	.loc	38 1912 9 prologue_end
	movq	16(%rdi), %rax
	.loc	38 1913 6
	popq	%rcx
	.cfi_def_cfa_offset 8
	retq
.Ltmp472:
.Lfunc_end150:
	.size	_ZN5alloc3vec16Vec$LT$T$C$A$GT$3len17hb52094b974e217caE, .Lfunc_end150-_ZN5alloc3vec16Vec$LT$T$C$A$GT$3len17hb52094b974e217caE
	.cfi_endproc

	.section	".text._ZN5alloc3vec16Vec$LT$T$C$A$GT$3len17hd808c2b9c2d5ecbfE","ax",@progbits
	.p2align	4, 0x90
	.type	_ZN5alloc3vec16Vec$LT$T$C$A$GT$3len17hd808c2b9c2d5ecbfE,@function
_ZN5alloc3vec16Vec$LT$T$C$A$GT$3len17hd808c2b9c2d5ecbfE:
.Lfunc_begin151:
	.loc	38 1911 0
	.cfi_startproc
	pushq	%rax
	.cfi_def_cfa_offset 16
	movq	%rdi, (%rsp)
.Ltmp473:
	.loc	38 1912 9 prologue_end
	movq	16(%rdi), %rax
	.loc	38 1913 6
	popq	%rcx
	.cfi_def_cfa_offset 8
	retq
.Ltmp474:
.Lfunc_end151:
	.size	_ZN5alloc3vec16Vec$LT$T$C$A$GT$3len17hd808c2b9c2d5ecbfE, .Lfunc_end151-_ZN5alloc3vec16Vec$LT$T$C$A$GT$3len17hd808c2b9c2d5ecbfE
	.cfi_endproc

	.section	".text._ZN5alloc3vec16Vec$LT$T$C$A$GT$4push17h75144842dde5fc29E","ax",@progbits
	.p2align	4, 0x90
	.type	_ZN5alloc3vec16Vec$LT$T$C$A$GT$4push17h75144842dde5fc29E,@function
_ZN5alloc3vec16Vec$LT$T$C$A$GT$4push17h75144842dde5fc29E:
.Lfunc_begin152:
	.loc	38 1729 0
	.cfi_startproc
	.cfi_personality 155, DW.ref.rust_eh_personality
	.cfi_lsda 27, .Lexception9
	subq	$152, %rsp
	.cfi_def_cfa_offset 160
	movq	%rdi, 16(%rsp)
	movb	%sil, %al
	movb	%al, 31(%rsp)
	movq	%rdi, 56(%rsp)
	movb	%al, 71(%rsp)
.Ltmp482:
	.loc	38 1732 9 prologue_end
	movb	$0, 55(%rsp)
	movb	$1, 55(%rsp)
	.loc	38 1732 12 is_stmt 0
	movq	16(%rdi), %rax
	movq	%rax, 32(%rsp)
	.loc	38 1732 24
	movq	%rdi, %rax
	movq	%rax, 144(%rsp)
.Ltmp483:
	.file	39 "/builddir/build/BUILD/rustc-1.62.1-src/library/alloc/src/raw_vec.rs"
	.loc	39 232 59 is_stmt 1
	movq	8(%rdi), %rax
	movq	%rax, 136(%rsp)
	.loc	39 233 6
	movq	136(%rsp), %rax
	movq	%rax, 40(%rsp)
	jmp	.LBB152_3
.Ltmp484:
.LBB152_1:
	.loc	38 1740 5
	testb	$1, 55(%rsp)
	jne	.LBB152_12
	jmp	.LBB152_11
.LBB152_2:
.Ltmp481:
	.loc	38 0 5 is_stmt 0
	movq	%rax, %rcx
	movl	%edx, %eax
	movq	%rcx, 72(%rsp)
	movl	%eax, 80(%rsp)
	jmp	.LBB152_1
.LBB152_3:
	movq	32(%rsp), %rax
	movq	40(%rsp), %rcx
	.loc	38 1732 12 is_stmt 1
	cmpq	%rcx, %rax
	je	.LBB152_5
.LBB152_4:
.Ltmp477:
	.loc	38 0 12 is_stmt 0
	movq	16(%rsp), %rdi
	.loc	38 1736 23 is_stmt 1
	callq	_ZN5alloc3vec16Vec$LT$T$C$A$GT$10as_mut_ptr17h5b24154774acbfacE
.Ltmp478:
	movq	%rax, 8(%rsp)
	jmp	.LBB152_7
.LBB152_5:
	.loc	38 0 23 is_stmt 0
	movq	16(%rsp), %rdi
	.loc	38 1733 39 is_stmt 1
	movq	16(%rdi), %rsi
.Ltmp475:
	.loc	38 1733 13 is_stmt 0
	callq	_ZN5alloc7raw_vec19RawVec$LT$T$C$A$GT$16reserve_for_push17hed2ef2f9fc703040E
.Ltmp476:
	jmp	.LBB152_6
.LBB152_6:
	.loc	38 1732 9 is_stmt 1
	jmp	.LBB152_4
.LBB152_7:
	.loc	38 0 9 is_stmt 0
	movq	8(%rsp), %rax
	movq	16(%rsp), %rcx
	.loc	38 1736 45 is_stmt 1
	movq	16(%rcx), %rcx
	movq	%rax, 96(%rsp)
	movq	%rcx, 104(%rsp)
	movq	%rax, 112(%rsp)
	movq	%rcx, 120(%rsp)
.Ltmp485:
	.loc	22 467 18
	addq	%rcx, %rax
	movq	%rax, 128(%rsp)
	movq	128(%rsp), %rax
	movq	%rax, (%rsp)
.Ltmp486:
	.loc	22 923 6
	jmp	.LBB152_9
.Ltmp487:
.LBB152_9:
	.loc	22 0 6 is_stmt 0
	movq	(%rsp), %rdi
	movb	31(%rsp), %al
	.loc	38 1736 23 is_stmt 1
	movq	%rdi, 88(%rsp)
.Ltmp488:
	.loc	38 1737 29
	movb	$0, 55(%rsp)
.Ltmp479:
	.loc	38 1737 13 is_stmt 0
	movzbl	%al, %esi
	callq	_ZN4core3ptr5write17heee9add756df0b09E
.Ltmp480:
	jmp	.LBB152_10
.LBB152_10:
	.loc	38 0 13
	movq	16(%rsp), %rax
	.loc	38 1738 13 is_stmt 1
	movq	16(%rax), %rcx
	addq	$1, %rcx
	movq	%rcx, 16(%rax)
.Ltmp489:
	.loc	38 1740 6
	addq	$152, %rsp
	.cfi_def_cfa_offset 8
	retq
.LBB152_11:
	.cfi_def_cfa_offset 160
	.loc	38 1729 5
	movq	72(%rsp), %rdi
	callq	_Unwind_Resume@PLT
	ud2
.LBB152_12:
	.loc	38 1740 5
	jmp	.LBB152_11
.Ltmp490:
.Lfunc_end152:
	.size	_ZN5alloc3vec16Vec$LT$T$C$A$GT$4push17h75144842dde5fc29E, .Lfunc_end152-_ZN5alloc3vec16Vec$LT$T$C$A$GT$4push17h75144842dde5fc29E
	.cfi_endproc
	.section	".gcc_except_table._ZN5alloc3vec16Vec$LT$T$C$A$GT$4push17h75144842dde5fc29E","a",@progbits
	.p2align	2
GCC_except_table152:
.Lexception9:
	.byte	255
	.byte	255
	.byte	1
	.uleb128 .Lcst_end9-.Lcst_begin9
.Lcst_begin9:
	.uleb128 .Ltmp477-.Lfunc_begin152
	.uleb128 .Ltmp480-.Ltmp477
	.uleb128 .Ltmp481-.Lfunc_begin152
	.byte	0
	.uleb128 .Ltmp480-.Lfunc_begin152
	.uleb128 .Lfunc_end152-.Ltmp480
	.byte	0
	.byte	0
.Lcst_end9:
	.p2align	2

	.section	".text._ZN5alloc3vec16Vec$LT$T$C$A$GT$6as_ptr17h167801cdb5a01a24E","ax",@progbits
	.p2align	4, 0x90
	.type	_ZN5alloc3vec16Vec$LT$T$C$A$GT$6as_ptr17h167801cdb5a01a24E,@function
_ZN5alloc3vec16Vec$LT$T$C$A$GT$6as_ptr17h167801cdb5a01a24E:
.Lfunc_begin153:
	.loc	38 1137 0
	.cfi_startproc
	subq	$24, %rsp
	.cfi_def_cfa_offset 32
	movq	%rdi, 8(%rsp)
.Ltmp491:
	.loc	38 1140 19 prologue_end
	callq	_ZN5alloc7raw_vec19RawVec$LT$T$C$A$GT$3ptr17h827438fcc43efbe0E
	movq	%rax, (%rsp)
	movq	%rax, 16(%rsp)
	.loc	38 0 19 is_stmt 0
	movq	(%rsp), %rdi
.Ltmp492:
	.loc	38 1142 21 is_stmt 1
	callq	_ZN4core3ptr7mut_ptr31_$LT$impl$u20$$BP$mut$u20$T$GT$7is_null17h1b2023f4dbaf0a42E
.Ltmp493:
	.loc	38 0 21 is_stmt 0
	movq	(%rsp), %rax
	.loc	38 1145 6 is_stmt 1
	addq	$24, %rsp
	.cfi_def_cfa_offset 8
	retq
.Ltmp494:
.Lfunc_end153:
	.size	_ZN5alloc3vec16Vec$LT$T$C$A$GT$6as_ptr17h167801cdb5a01a24E, .Lfunc_end153-_ZN5alloc3vec16Vec$LT$T$C$A$GT$6as_ptr17h167801cdb5a01a24E
	.cfi_endproc

	.section	".text._ZN5alloc3vec16Vec$LT$T$C$A$GT$6as_ptr17hb6f1326d3bec5319E","ax",@progbits
	.p2align	4, 0x90
	.type	_ZN5alloc3vec16Vec$LT$T$C$A$GT$6as_ptr17hb6f1326d3bec5319E,@function
_ZN5alloc3vec16Vec$LT$T$C$A$GT$6as_ptr17hb6f1326d3bec5319E:
.Lfunc_begin154:
	.loc	38 1137 0
	.cfi_startproc
	subq	$24, %rsp
	.cfi_def_cfa_offset 32
	movq	%rdi, 8(%rsp)
.Ltmp495:
	.loc	38 1140 19 prologue_end
	callq	_ZN5alloc7raw_vec19RawVec$LT$T$C$A$GT$3ptr17hddde3ed8e7f5368eE
	movq	%rax, (%rsp)
	movq	%rax, 16(%rsp)
	.loc	38 0 19 is_stmt 0
	movq	(%rsp), %rdi
.Ltmp496:
	.loc	38 1142 21 is_stmt 1
	callq	_ZN4core3ptr7mut_ptr31_$LT$impl$u20$$BP$mut$u20$T$GT$7is_null17hca2412bac0d5e5e1E
.Ltmp497:
	.loc	38 0 21 is_stmt 0
	movq	(%rsp), %rax
	.loc	38 1145 6 is_stmt 1
	addq	$24, %rsp
	.cfi_def_cfa_offset 8
	retq
.Ltmp498:
.Lfunc_end154:
	.size	_ZN5alloc3vec16Vec$LT$T$C$A$GT$6as_ptr17hb6f1326d3bec5319E, .Lfunc_end154-_ZN5alloc3vec16Vec$LT$T$C$A$GT$6as_ptr17hb6f1326d3bec5319E
	.cfi_endproc

	.section	".text._ZN5alloc3vec16Vec$LT$T$C$A$GT$7reserve17hdfe19a726b704a2aE","ax",@progbits
	.p2align	4, 0x90
	.type	_ZN5alloc3vec16Vec$LT$T$C$A$GT$7reserve17hdfe19a726b704a2aE,@function
_ZN5alloc3vec16Vec$LT$T$C$A$GT$7reserve17hdfe19a726b704a2aE:
.Lfunc_begin155:
	.loc	38 814 0
	.cfi_startproc
	subq	$24, %rsp
	.cfi_def_cfa_offset 32
	movq	%rsi, %rdx
	movq	%rdi, %rax
	movq	%rax, 8(%rsp)
	movq	%rdx, 16(%rsp)
.Ltmp499:
	.loc	38 815 9 prologue_end
	movq	%rax, %rdi
	.loc	38 815 26 is_stmt 0
	movq	16(%rax), %rsi
	.loc	38 815 9
	callq	_ZN5alloc7raw_vec19RawVec$LT$T$C$A$GT$7reserve17h976c9f99f6941ec6E
	.loc	38 816 6 is_stmt 1
	addq	$24, %rsp
	.cfi_def_cfa_offset 8
	retq
.Ltmp500:
.Lfunc_end155:
	.size	_ZN5alloc3vec16Vec$LT$T$C$A$GT$7reserve17hdfe19a726b704a2aE, .Lfunc_end155-_ZN5alloc3vec16Vec$LT$T$C$A$GT$7reserve17hdfe19a726b704a2aE
	.cfi_endproc

	.section	".text._ZN5alloc3vec16Vec$LT$T$C$A$GT$7set_len17h9a0c861ac836aff6E","ax",@progbits
	.p2align	4, 0x90
	.type	_ZN5alloc3vec16Vec$LT$T$C$A$GT$7set_len17h9a0c861ac836aff6E,@function
_ZN5alloc3vec16Vec$LT$T$C$A$GT$7set_len17h9a0c861ac836aff6E:
.Lfunc_begin156:
	.loc	38 1270 0
	.cfi_startproc
	subq	$16, %rsp
	.cfi_def_cfa_offset 24
	movq	%rdi, (%rsp)
	movq	%rsi, 8(%rsp)
.Ltmp501:
	.loc	38 1273 9 prologue_end
	movq	%rsi, 16(%rdi)
	.loc	38 1274 6
	addq	$16, %rsp
	.cfi_def_cfa_offset 8
	retq
.Ltmp502:
.Lfunc_end156:
	.size	_ZN5alloc3vec16Vec$LT$T$C$A$GT$7set_len17h9a0c861ac836aff6E, .Lfunc_end156-_ZN5alloc3vec16Vec$LT$T$C$A$GT$7set_len17h9a0c861ac836aff6E
	.cfi_endproc

	.section	".text._ZN5alloc3vec16Vec$LT$T$C$A$GT$8as_slice17h9b90fd1a2914f4baE","ax",@progbits
	.p2align	4, 0x90
	.type	_ZN5alloc3vec16Vec$LT$T$C$A$GT$8as_slice17h9b90fd1a2914f4baE,@function
_ZN5alloc3vec16Vec$LT$T$C$A$GT$8as_slice17h9b90fd1a2914f4baE:
.Lfunc_begin157:
	.loc	38 1089 0
	.cfi_startproc
	subq	$24, %rsp
	.cfi_def_cfa_offset 32
	movq	%rdi, 16(%rsp)
.Ltmp503:
	.loc	38 1090 9 prologue_end
	callq	_ZN72_$LT$alloc..vec..Vec$LT$T$C$A$GT$$u20$as$u20$core..ops..deref..Deref$GT$5deref17hce7ddf9c1e802da3E
	movq	%rax, (%rsp)
	movq	%rdx, 8(%rsp)
	.loc	38 0 9 is_stmt 0
	movq	8(%rsp), %rdx
	movq	(%rsp), %rax
	.loc	38 1091 6 is_stmt 1
	addq	$24, %rsp
	.cfi_def_cfa_offset 8
	retq
.Ltmp504:
.Lfunc_end157:
	.size	_ZN5alloc3vec16Vec$LT$T$C$A$GT$8as_slice17h9b90fd1a2914f4baE, .Lfunc_end157-_ZN5alloc3vec16Vec$LT$T$C$A$GT$8as_slice17h9b90fd1a2914f4baE
	.cfi_endproc

	.section	.text._ZN5alloc5alloc12alloc_zeroed17hc459e549a618204cE,"ax",@progbits
	.p2align	4, 0x90
	.type	_ZN5alloc5alloc12alloc_zeroed17hc459e549a618204cE,@function
_ZN5alloc5alloc12alloc_zeroed17hc459e549a618204cE:
.Lfunc_begin158:
	.file	40 "/builddir/build/BUILD/rustc-1.62.1-src/library/alloc/src/alloc.rs"
	.loc	40 159 0
	.cfi_startproc
	subq	$40, %rsp
	.cfi_def_cfa_offset 48
	movq	%rdi, 24(%rsp)
	movq	%rsi, 32(%rsp)
.Ltmp505:
	.loc	40 160 34 prologue_end
	leaq	24(%rsp), %rdi
	callq	_ZN4core5alloc6layout6Layout4size17h097db01888c7f792E
	movq	%rax, 16(%rsp)
	.loc	40 160 49 is_stmt 0
	leaq	24(%rsp), %rdi
	callq	_ZN4core5alloc6layout6Layout5align17hccd89aca8e6b684cE
	movq	%rax, 8(%rsp)
	.loc	40 0 49
	movq	8(%rsp), %rsi
	movq	16(%rsp), %rdi
	.loc	40 160 14
	callq	*__rust_alloc_zeroed@GOTPCREL(%rip)
	movq	%rax, (%rsp)
	.loc	40 0 14
	movq	(%rsp), %rax
	.loc	40 161 2 is_stmt 1
	addq	$40, %rsp
	.cfi_def_cfa_offset 8
	retq
.Ltmp506:
.Lfunc_end158:
	.size	_ZN5alloc5alloc12alloc_zeroed17hc459e549a618204cE, .Lfunc_end158-_ZN5alloc5alloc12alloc_zeroed17hc459e549a618204cE
	.cfi_endproc

	.section	.text._ZN5alloc5alloc15exchange_malloc17h530af4db49a52a8fE,"ax",@progbits
	.p2align	4, 0x90
	.type	_ZN5alloc5alloc15exchange_malloc17h530af4db49a52a8fE,@function
_ZN5alloc5alloc15exchange_malloc17h530af4db49a52a8fE:
.Lfunc_begin159:
	.loc	40 318 0
	.cfi_startproc
	subq	$88, %rsp
	.cfi_def_cfa_offset 96
	movq	%rdi, 40(%rsp)
	movq	%rsi, 48(%rsp)
.Ltmp507:
	.loc	40 319 27 prologue_end
	callq	_ZN4core5alloc6layout6Layout25from_size_align_unchecked17he46594d435bff2cbE
	movq	%rax, 8(%rsp)
	movq	%rdx, 16(%rsp)
	movq	%rax, 56(%rsp)
	movq	%rdx, 64(%rsp)
	.loc	40 0 27 is_stmt 0
	movq	16(%rsp), %rdx
	movq	8(%rsp), %rsi
.Ltmp508:
	.loc	40 320 11 is_stmt 1
	leaq	.L__unnamed_6(%rip), %rdi
	callq	_ZN63_$LT$alloc..alloc..Global$u20$as$u20$core..alloc..Allocator$GT$8allocate17h46bdb81d1d7f1094E
	movq	%rdx, 32(%rsp)
	movq	%rax, 24(%rsp)
	movq	24(%rsp), %rax
	testq	%rax, %rax
	sete	%al
	movzbl	%al, %eax
	.loc	40 320 5 is_stmt 0
	jne	.LBB159_4
	jmp	.LBB159_7
.LBB159_7:
	jmp	.LBB159_5
	.cfi_def_cfa_offset 8
	.loc	40 320 11
	ud2
.LBB159_4:
	.cfi_def_cfa_offset 96
	.loc	40 321 12 is_stmt 1
	movq	24(%rsp), %rdi
	movq	32(%rsp), %rsi
	movq	%rdi, 72(%rsp)
	movq	%rsi, 80(%rsp)
.Ltmp509:
	.loc	40 321 20 is_stmt 0
	callq	_ZN4core3ptr8non_null26NonNull$LT$$u5b$T$u5d$$GT$10as_mut_ptr17h745fa8cc78fc832cE
	movq	%rax, (%rsp)
	jmp	.LBB159_6
.Ltmp510:
.LBB159_5:
	.loc	40 0 20
	movq	16(%rsp), %rsi
	movq	8(%rsp), %rdi
	.loc	40 322 19 is_stmt 1
	movq	_ZN5alloc5alloc18handle_alloc_error17hdcc80e546b4a46a8E@GOTPCREL(%rip), %rax
	callq	*%rax
	ud2
.Ltmp511:
.LBB159_6:
	.loc	40 0 19 is_stmt 0
	movq	(%rsp), %rax
	.loc	40 324 2 is_stmt 1
	addq	$88, %rsp
	.cfi_def_cfa_offset 8
	retq
.Ltmp512:
.Lfunc_end159:
	.size	_ZN5alloc5alloc15exchange_malloc17h530af4db49a52a8fE, .Lfunc_end159-_ZN5alloc5alloc15exchange_malloc17h530af4db49a52a8fE
	.cfi_endproc

	.section	.text._ZN5alloc5alloc5alloc17hedc3e7ac6e56b5d0E,"ax",@progbits
	.p2align	4, 0x90
	.type	_ZN5alloc5alloc5alloc17hedc3e7ac6e56b5d0E,@function
_ZN5alloc5alloc5alloc17hedc3e7ac6e56b5d0E:
.Lfunc_begin160:
	.loc	40 88 0
	.cfi_startproc
	subq	$40, %rsp
	.cfi_def_cfa_offset 48
	movq	%rdi, 24(%rsp)
	movq	%rsi, 32(%rsp)
.Ltmp513:
	.loc	40 89 27 prologue_end
	leaq	24(%rsp), %rdi
	callq	_ZN4core5alloc6layout6Layout4size17h097db01888c7f792E
	movq	%rax, 16(%rsp)
	.loc	40 89 42 is_stmt 0
	leaq	24(%rsp), %rdi
	callq	_ZN4core5alloc6layout6Layout5align17hccd89aca8e6b684cE
	movq	%rax, 8(%rsp)
	.loc	40 0 42
	movq	8(%rsp), %rsi
	movq	16(%rsp), %rdi
	.loc	40 89 14
	callq	*__rust_alloc@GOTPCREL(%rip)
	movq	%rax, (%rsp)
	.loc	40 0 14
	movq	(%rsp), %rax
	.loc	40 90 2 is_stmt 1
	addq	$40, %rsp
	.cfi_def_cfa_offset 8
	retq
.Ltmp514:
.Lfunc_end160:
	.size	_ZN5alloc5alloc5alloc17hedc3e7ac6e56b5d0E, .Lfunc_end160-_ZN5alloc5alloc5alloc17hedc3e7ac6e56b5d0E
	.cfi_endproc

	.section	.text._ZN5alloc5alloc6Global10alloc_impl17h8e8b1a41c87e2c5fE,"ax",@progbits
	.p2align	4, 0x90
	.type	_ZN5alloc5alloc6Global10alloc_impl17h8e8b1a41c87e2c5fE,@function
_ZN5alloc5alloc6Global10alloc_impl17h8e8b1a41c87e2c5fE:
.Lfunc_begin161:
	.loc	40 166 0
	.cfi_startproc
	subq	$168, %rsp
	.cfi_def_cfa_offset 176
	movb	%cl, %al
	movb	%al, 63(%rsp)
	movq	%rsi, 72(%rsp)
	movq	%rdx, 80(%rsp)
	movq	%rdi, 120(%rsp)
	andb	$1, %al
	movb	%al, 135(%rsp)
.Ltmp515:
	.loc	40 167 15 prologue_end
	leaq	72(%rsp), %rdi
	callq	_ZN4core5alloc6layout6Layout4size17h097db01888c7f792E
	movq	%rax, 64(%rsp)
	.loc	40 0 15 is_stmt 0
	movq	64(%rsp), %rax
	.loc	40 167 9
	cmpq	$0, %rax
	jne	.LBB161_3
	.loc	40 168 51 is_stmt 1
	leaq	72(%rsp), %rdi
	callq	_ZN4core5alloc6layout6Layout8dangling17h0c5fd54924f91bc3E
	movq	%rax, 48(%rsp)
	jmp	.LBB161_19
.LBB161_3:
	.loc	40 0 51 is_stmt 0
	movb	63(%rsp), %al
	movq	64(%rsp), %rcx
	.loc	40 170 13 is_stmt 1
	movq	%rcx, 144(%rsp)
.Ltmp516:
	.loc	40 171 34
	testb	$1, %al
	jne	.LBB161_5
	.loc	40 171 79 is_stmt 0
	movq	72(%rsp), %rdi
	movq	80(%rsp), %rsi
	.loc	40 171 73
	callq	_ZN5alloc5alloc5alloc17hedc3e7ac6e56b5d0E
	movq	%rax, 104(%rsp)
	jmp	.LBB161_8
.LBB161_5:
	.loc	40 171 56
	movq	72(%rsp), %rdi
	movq	80(%rsp), %rsi
	.loc	40 171 43
	callq	_ZN5alloc5alloc12alloc_zeroed17hc459e549a618204cE
	movq	%rax, 104(%rsp)
	.loc	40 171 31
	jmp	.LBB161_7
.LBB161_7:
.Ltmp517:
	.loc	40 172 40 is_stmt 1
	movq	104(%rsp), %rdi
	.loc	40 172 27 is_stmt 0
	callq	_ZN4core3ptr8non_null16NonNull$LT$T$GT$3new17hb4d4117fb33dfae6E
	movq	%rax, 40(%rsp)
	jmp	.LBB161_9
.Ltmp518:
.LBB161_8:
	.loc	40 171 31 is_stmt 1
	jmp	.LBB161_7
.LBB161_9:
	.loc	40 0 31 is_stmt 0
	movq	40(%rsp), %rdi
.Ltmp519:
	.loc	40 172 27 is_stmt 1
	callq	_ZN4core6option15Option$LT$T$GT$5ok_or17hd4d10d6ac227da66E
	movq	%rax, 32(%rsp)
	.loc	40 0 27 is_stmt 0
	movq	32(%rsp), %rdi
	.loc	40 172 27
	callq	_ZN79_$LT$core..result..Result$LT$T$C$E$GT$$u20$as$u20$core..ops..try_trait..Try$GT$6branch17h2679b6c9c2dee813E
	movq	%rax, 112(%rsp)
	movq	112(%rsp), %rax
	testq	%rax, %rax
	sete	%al
	movzbl	%al, %eax
	jne	.LBB161_13
	jmp	.LBB161_21
.LBB161_21:
	jmp	.LBB161_14
	.cfi_def_cfa_offset 8
	ud2
.LBB161_13:
	.cfi_def_cfa_offset 176
	.loc	40 0 27
	movq	64(%rsp), %rsi
	.loc	40 172 27
	movq	112(%rsp), %rdi
	movq	%rdi, 152(%rsp)
.Ltmp520:
	.loc	40 172 27
	movq	%rdi, 160(%rsp)
.Ltmp521:
	.loc	40 173 20 is_stmt 1
	callq	_ZN4core3ptr8non_null26NonNull$LT$$u5b$T$u5d$$GT$20slice_from_raw_parts17h257026cbcce3ffa4E
	movq	%rax, 16(%rsp)
	movq	%rdx, 24(%rsp)
	jmp	.LBB161_17
.Ltmp522:
.LBB161_14:
	.loc	40 172 27
	leaq	.L__unnamed_7(%rip), %rdi
	callq	_ZN153_$LT$core..result..Result$LT$T$C$F$GT$$u20$as$u20$core..ops..try_trait..FromResidual$LT$core..result..Result$LT$core..convert..Infallible$C$E$GT$$GT$$GT$13from_residual17hb1a370cd8ae91d47E
	movq	%rdx, 96(%rsp)
	movq	%rax, 88(%rsp)
.Ltmp523:
	.loc	40 176 6
	jmp	.LBB161_16
.LBB161_16:
	movq	88(%rsp), %rax
	movq	96(%rsp), %rdx
	addq	$168, %rsp
	.cfi_def_cfa_offset 8
	retq
.LBB161_17:
	.cfi_def_cfa_offset 176
	.loc	40 0 6 is_stmt 0
	movq	24(%rsp), %rax
	movq	16(%rsp), %rcx
.Ltmp524:
	.loc	40 173 17 is_stmt 1
	movq	%rcx, 88(%rsp)
	movq	%rax, 96(%rsp)
.Ltmp525:
.LBB161_18:
	.loc	40 176 6
	jmp	.LBB161_16
.LBB161_19:
	.loc	40 0 6 is_stmt 0
	movq	48(%rsp), %rdi
	.loc	40 168 21 is_stmt 1
	xorl	%eax, %eax
	movl	%eax, %esi
	callq	_ZN4core3ptr8non_null26NonNull$LT$$u5b$T$u5d$$GT$20slice_from_raw_parts17h257026cbcce3ffa4E
	movq	%rax, (%rsp)
	movq	%rdx, 8(%rsp)
	.loc	40 0 21 is_stmt 0
	movq	8(%rsp), %rax
	movq	(%rsp), %rcx
	.loc	40 168 18
	movq	%rcx, 88(%rsp)
	movq	%rax, 96(%rsp)
	.loc	40 168 72
	jmp	.LBB161_18
.Ltmp526:
.Lfunc_end161:
	.size	_ZN5alloc5alloc6Global10alloc_impl17h8e8b1a41c87e2c5fE, .Lfunc_end161-_ZN5alloc5alloc6Global10alloc_impl17h8e8b1a41c87e2c5fE
	.cfi_endproc

	.section	.text._ZN5alloc5alloc6Global9grow_impl17ha0666b8e94e3c70dE,"ax",@progbits
	.p2align	4, 0x90
	.type	_ZN5alloc5alloc6Global9grow_impl17ha0666b8e94e3c70dE,@function
_ZN5alloc5alloc6Global9grow_impl17ha0666b8e94e3c70dE:
.Lfunc_begin162:
	.loc	40 180 0 is_stmt 1
	.cfi_startproc
	subq	$456, %rsp
	.cfi_def_cfa_offset 464
	movq	%rsi, 160(%rsp)
	movq	%rdi, 168(%rsp)
	movb	464(%rsp), %al
	movb	%al, 183(%rsp)
	movq	%rdx, 184(%rsp)
	movq	%rcx, 192(%rsp)
	movq	%r8, 200(%rsp)
	movq	%r9, 208(%rsp)
	movq	%rdi, 264(%rsp)
	movq	%rsi, 272(%rsp)
	andb	$1, %al
	movb	%al, 287(%rsp)
.Ltmp527:
	.loc	40 192 15 prologue_end
	leaq	184(%rsp), %rdi
	callq	_ZN4core5alloc6layout6Layout4size17h097db01888c7f792E
	movq	%rax, 232(%rsp)
	.loc	40 192 9 is_stmt 0
	cmpq	$0, 232(%rsp)
	jne	.LBB162_3
	.loc	40 0 9
	movq	168(%rsp), %rdi
	movb	183(%rsp), %al
	.loc	40 193 34 is_stmt 1
	movq	200(%rsp), %rsi
	movq	208(%rsp), %rdx
	.loc	40 193 18 is_stmt 0
	movzbl	%al, %ecx
	andl	$1, %ecx
	callq	_ZN5alloc5alloc6Global10alloc_impl17h8e8b1a41c87e2c5fE
	movq	%rdx, 224(%rsp)
	movq	%rax, 216(%rsp)
	jmp	.LBB162_38
.LBB162_3:
	.loc	40 197 13 is_stmt 1
	leaq	232(%rsp), %rax
	movq	%rax, 304(%rsp)
	.loc	40 197 25 is_stmt 0
	leaq	184(%rsp), %rdi
	callq	_ZN4core5alloc6layout6Layout5align17hccd89aca8e6b684cE
	movq	%rax, 152(%rsp)
	.loc	40 197 47
	leaq	200(%rsp), %rdi
	callq	_ZN4core5alloc6layout6Layout5align17hccd89aca8e6b684cE
	movq	%rax, 144(%rsp)
	.loc	40 0 47
	movq	152(%rsp), %rax
	movq	144(%rsp), %rcx
	.loc	40 197 25
	cmpq	%rcx, %rax
	je	.LBB162_7
	.loc	40 0 25
	movq	168(%rsp), %rdi
	movb	183(%rsp), %al
	.loc	40 216 13 is_stmt 1
	movq	232(%rsp), %rcx
	movq	%rcx, 120(%rsp)
	movq	%rcx, 352(%rsp)
.Ltmp528:
	.loc	40 217 47
	movq	200(%rsp), %rsi
	movq	208(%rsp), %rdx
	.loc	40 217 31 is_stmt 0
	movzbl	%al, %ecx
	andl	$1, %ecx
	callq	_ZN5alloc5alloc6Global10alloc_impl17h8e8b1a41c87e2c5fE
	movq	%rdx, 128(%rsp)
	movq	%rax, 136(%rsp)
	jmp	.LBB162_27
.Ltmp529:
.LBB162_7:
	.loc	40 197 13 is_stmt 1
	movq	232(%rsp), %rax
	movq	%rax, 104(%rsp)
	movq	%rax, 312(%rsp)
.Ltmp530:
	.loc	40 198 32
	leaq	200(%rsp), %rdi
	callq	_ZN4core5alloc6layout6Layout4size17h097db01888c7f792E
	movq	%rax, 112(%rsp)
	movq	%rax, 320(%rsp)
.Ltmp531:
	.loc	40 201 48
	leaq	184(%rsp), %rdi
	callq	_ZN4core5alloc6layout6Layout4size17h097db01888c7f792E
	.loc	40 0 48 is_stmt 0
	movq	160(%rsp), %rdi
	.loc	40 203 39 is_stmt 1
	callq	_ZN4core3ptr8non_null16NonNull$LT$T$GT$6as_ptr17h808fdef249a03bf0E
	movq	%rax, 96(%rsp)
	.loc	40 0 39 is_stmt 0
	movq	112(%rsp), %rcx
	movq	96(%rsp), %rdi
	.loc	40 203 53
	movq	184(%rsp), %rsi
	movq	192(%rsp), %rdx
	.loc	40 203 31
	callq	_ZN5alloc5alloc7realloc17h198a0547b83f4874E
	movq	%rax, 88(%rsp)
	movq	%rax, 328(%rsp)
	.loc	40 0 31
	movq	88(%rsp), %rdi
.Ltmp532:
	.loc	40 204 27 is_stmt 1
	callq	_ZN4core3ptr8non_null16NonNull$LT$T$GT$3new17hb4d4117fb33dfae6E
	movq	%rax, 80(%rsp)
	.loc	40 0 27 is_stmt 0
	movq	80(%rsp), %rdi
	.loc	40 204 27
	callq	_ZN4core6option15Option$LT$T$GT$5ok_or17hd4d10d6ac227da66E
	movq	%rax, 72(%rsp)
	.loc	40 0 27
	movq	72(%rsp), %rdi
	.loc	40 204 27
	callq	_ZN79_$LT$core..result..Result$LT$T$C$E$GT$$u20$as$u20$core..ops..try_trait..Try$GT$6branch17h2679b6c9c2dee813E
	movq	%rax, 240(%rsp)
	movq	240(%rsp), %rax
	testq	%rax, %rax
	sete	%al
	movzbl	%al, %eax
	jne	.LBB162_17
	jmp	.LBB162_40
.LBB162_40:
	jmp	.LBB162_18
	.cfi_def_cfa_offset 8
	ud2
.LBB162_17:
	.cfi_def_cfa_offset 464
	.loc	40 0 27
	movb	183(%rsp), %al
	.loc	40 204 27
	movq	240(%rsp), %rcx
	movq	%rcx, 64(%rsp)
	movq	%rcx, 336(%rsp)
.Ltmp533:
	.loc	40 204 27
	movq	%rcx, 344(%rsp)
.Ltmp534:
	.loc	40 205 20 is_stmt 1
	testb	$1, %al
	jne	.LBB162_22
	jmp	.LBB162_21
.Ltmp535:
.LBB162_18:
	.loc	40 204 27
	leaq	.L__unnamed_8(%rip), %rdi
	callq	_ZN153_$LT$core..result..Result$LT$T$C$F$GT$$u20$as$u20$core..ops..try_trait..FromResidual$LT$core..result..Result$LT$core..convert..Infallible$C$E$GT$$GT$$GT$13from_residual17hb1a370cd8ae91d47E
	movq	%rdx, 224(%rsp)
	movq	%rax, 216(%rsp)
.Ltmp536:
	.file	41 "/home/coder/src/dyn_lib_experiments/multi/src/main.rs"
	.loc	41 1 1
	jmp	.LBB162_20
.LBB162_20:
	.loc	40 223 6
	jmp	.LBB162_33
.LBB162_21:
	.loc	40 0 6 is_stmt 0
	movq	112(%rsp), %rsi
	movq	64(%rsp), %rdi
.Ltmp537:
	.loc	40 208 20 is_stmt 1
	callq	_ZN4core3ptr8non_null26NonNull$LT$$u5b$T$u5d$$GT$20slice_from_raw_parts17h257026cbcce3ffa4E
	movq	%rax, 48(%rsp)
	movq	%rdx, 56(%rsp)
	jmp	.LBB162_25
.LBB162_22:
	.loc	40 0 20 is_stmt 0
	movq	104(%rsp), %rcx
	movq	88(%rsp), %rax
	movq	%rax, 416(%rsp)
	movq	%rcx, 424(%rsp)
	movq	%rax, 432(%rsp)
	movq	%rcx, 440(%rsp)
.Ltmp538:
	.loc	22 467 18 is_stmt 1
	addq	%rcx, %rax
	movq	%rax, 448(%rsp)
	movq	448(%rsp), %rax
	movq	%rax, 40(%rsp)
.Ltmp539:
	.loc	22 0 18 is_stmt 0
	movq	40(%rsp), %rdi
	movq	104(%rsp), %rax
	movq	112(%rsp), %rdx
	.loc	40 206 58 is_stmt 1
	subq	%rax, %rdx
	movq	%rdi, 392(%rsp)
	movb	$0, 407(%rsp)
	movq	%rdx, 408(%rsp)
.Ltmp540:
	.loc	22 1288 18
	xorl	%esi, %esi
	callq	_ZN4core10intrinsics11write_bytes17h83a6877bc0a0b30eE
.Ltmp541:
	.loc	40 205 17
	jmp	.LBB162_21
.LBB162_25:
	.loc	40 0 17 is_stmt 0
	movq	56(%rsp), %rax
	movq	48(%rsp), %rcx
	.loc	40 208 17 is_stmt 1
	movq	%rcx, 216(%rsp)
	movq	%rax, 224(%rsp)
.Ltmp542:
.LBB162_26:
	.loc	40 223 6
	jmp	.LBB162_33
.LBB162_27:
	.loc	40 0 6 is_stmt 0
	movq	128(%rsp), %rsi
	movq	136(%rsp), %rdi
.Ltmp543:
	.loc	40 217 31 is_stmt 1
	callq	_ZN79_$LT$core..result..Result$LT$T$C$E$GT$$u20$as$u20$core..ops..try_trait..Try$GT$6branch17hb6b65bebac3db818E
	movq	%rdx, 256(%rsp)
	movq	%rax, 248(%rsp)
	movq	248(%rsp), %rax
	testq	%rax, %rax
	sete	%al
	movzbl	%al, %eax
	jne	.LBB162_30
	jmp	.LBB162_39
.LBB162_39:
	jmp	.LBB162_31
	.cfi_def_cfa_offset 8
	ud2
.LBB162_30:
	.cfi_def_cfa_offset 464
	.loc	40 0 31 is_stmt 0
	movq	160(%rsp), %rdi
	.loc	40 217 31
	movq	248(%rsp), %rcx
	movq	%rcx, 16(%rsp)
	movq	256(%rsp), %rax
	movq	%rax, 24(%rsp)
	movq	%rcx, 360(%rsp)
	movq	%rax, 368(%rsp)
.Ltmp544:
	.loc	40 217 31
	movq	%rcx, 376(%rsp)
	movq	%rax, 384(%rsp)
.Ltmp545:
	.loc	40 218 42 is_stmt 1
	callq	_ZN4core3ptr8non_null16NonNull$LT$T$GT$6as_ptr17h808fdef249a03bf0E
	movq	%rax, 32(%rsp)
	jmp	.LBB162_34
.Ltmp546:
.LBB162_31:
	.loc	40 217 31
	leaq	.L__unnamed_9(%rip), %rdi
	callq	_ZN153_$LT$core..result..Result$LT$T$C$F$GT$$u20$as$u20$core..ops..try_trait..FromResidual$LT$core..result..Result$LT$core..convert..Infallible$C$E$GT$$GT$$GT$13from_residual17hb1a370cd8ae91d47E
	movq	%rdx, 224(%rsp)
	movq	%rax, 216(%rsp)
.Ltmp547:
	.loc	41 1 1
	jmp	.LBB162_20
.LBB162_33:
	.loc	40 223 6
	movq	216(%rsp), %rax
	movq	224(%rsp), %rdx
	addq	$456, %rsp
	.cfi_def_cfa_offset 8
	retq
.LBB162_34:
	.cfi_def_cfa_offset 464
	.loc	40 0 6 is_stmt 0
	movq	24(%rsp), %rsi
	movq	16(%rsp), %rdi
.Ltmp548:
	.loc	40 218 56 is_stmt 1
	callq	_ZN4core3ptr8non_null26NonNull$LT$$u5b$T$u5d$$GT$10as_mut_ptr17h745fa8cc78fc832cE
	movq	%rax, 8(%rsp)
	.loc	40 0 56 is_stmt 0
	movq	120(%rsp), %rdx
	movq	8(%rsp), %rsi
	movq	32(%rsp), %rdi
	.loc	40 218 17
	callq	_ZN4core10intrinsics19copy_nonoverlapping17h3b062fee7f2ce324E
	.loc	40 0 17
	movq	160(%rsp), %rsi
	movq	168(%rsp), %rdi
	.loc	40 219 38 is_stmt 1
	movq	184(%rsp), %rdx
	movq	192(%rsp), %rcx
	.loc	40 219 17 is_stmt 0
	callq	_ZN63_$LT$alloc..alloc..Global$u20$as$u20$core..alloc..Allocator$GT$10deallocate17ha7764f4f3749d6fcE
	.loc	40 0 17
	movq	24(%rsp), %rax
	movq	16(%rsp), %rcx
	.loc	40 220 17 is_stmt 1
	movq	%rcx, 216(%rsp)
	movq	%rax, 224(%rsp)
.Ltmp549:
	.loc	40 221 13
	jmp	.LBB162_26
.LBB162_38:
	.loc	40 193 52
	jmp	.LBB162_26
.Ltmp550:
.Lfunc_end162:
	.size	_ZN5alloc5alloc6Global9grow_impl17ha0666b8e94e3c70dE, .Lfunc_end162-_ZN5alloc5alloc6Global9grow_impl17ha0666b8e94e3c70dE
	.cfi_endproc

	.section	.text._ZN5alloc5alloc7dealloc17hea1ed0638d138c0dE,"ax",@progbits
	.p2align	4, 0x90
	.type	_ZN5alloc5alloc7dealloc17hea1ed0638d138c0dE,@function
_ZN5alloc5alloc7dealloc17hea1ed0638d138c0dE:
.Lfunc_begin163:
	.loc	40 106 0
	.cfi_startproc
	subq	$56, %rsp
	.cfi_def_cfa_offset 64
	movq	%rdi, 16(%rsp)
	movq	%rsi, 32(%rsp)
	movq	%rdx, 40(%rsp)
	movq	%rdi, 48(%rsp)
.Ltmp551:
	.loc	40 107 34 prologue_end
	leaq	32(%rsp), %rdi
	callq	_ZN4core5alloc6layout6Layout4size17h097db01888c7f792E
	movq	%rax, 24(%rsp)
	.loc	40 107 49 is_stmt 0
	leaq	32(%rsp), %rdi
	callq	_ZN4core5alloc6layout6Layout5align17hccd89aca8e6b684cE
	movq	%rax, 8(%rsp)
	.loc	40 0 49
	movq	8(%rsp), %rdx
	movq	24(%rsp), %rsi
	movq	16(%rsp), %rdi
	.loc	40 107 14
	callq	*__rust_dealloc@GOTPCREL(%rip)
	.loc	40 108 2 is_stmt 1
	addq	$56, %rsp
	.cfi_def_cfa_offset 8
	retq
.Ltmp552:
.Lfunc_end163:
	.size	_ZN5alloc5alloc7dealloc17hea1ed0638d138c0dE, .Lfunc_end163-_ZN5alloc5alloc7dealloc17hea1ed0638d138c0dE
	.cfi_endproc

	.section	.text._ZN5alloc5alloc7realloc17h198a0547b83f4874E,"ax",@progbits
	.p2align	4, 0x90
	.type	_ZN5alloc5alloc7realloc17h198a0547b83f4874E,@function
_ZN5alloc5alloc7realloc17h198a0547b83f4874E:
.Lfunc_begin164:
	.loc	40 125 0
	.cfi_startproc
	subq	$72, %rsp
	.cfi_def_cfa_offset 80
	movq	%rdi, 16(%rsp)
	movq	%rcx, 24(%rsp)
	movq	%rsi, 40(%rsp)
	movq	%rdx, 48(%rsp)
	movq	%rdi, 56(%rsp)
	movq	%rcx, 64(%rsp)
.Ltmp553:
	.loc	40 126 34 prologue_end
	leaq	40(%rsp), %rdi
	callq	_ZN4core5alloc6layout6Layout4size17h097db01888c7f792E
	movq	%rax, 32(%rsp)
	.loc	40 126 49 is_stmt 0
	leaq	40(%rsp), %rdi
	callq	_ZN4core5alloc6layout6Layout5align17hccd89aca8e6b684cE
	movq	%rax, 8(%rsp)
	.loc	40 0 49
	movq	24(%rsp), %rcx
	movq	8(%rsp), %rdx
	movq	32(%rsp), %rsi
	movq	16(%rsp), %rdi
	.loc	40 126 14
	callq	*__rust_realloc@GOTPCREL(%rip)
	movq	%rax, (%rsp)
	.loc	40 0 14
	movq	(%rsp), %rax
	.loc	40 127 2 is_stmt 1
	addq	$72, %rsp
	.cfi_def_cfa_offset 8
	retq
.Ltmp554:
.Lfunc_end164:
	.size	_ZN5alloc5alloc7realloc17h198a0547b83f4874E, .Lfunc_end164-_ZN5alloc5alloc7realloc17h198a0547b83f4874E
	.cfi_endproc

	.section	.text._ZN5alloc5alloc8box_free17h32965968b849b6bfE,"ax",@progbits
	.p2align	4, 0x90
	.type	_ZN5alloc5alloc8box_free17h32965968b849b6bfE,@function
_ZN5alloc5alloc8box_free17h32965968b849b6bfE:
.Lfunc_begin165:
	.loc	40 334 0
	.cfi_startproc
	.cfi_personality 155, DW.ref.rust_eh_personality
	.cfi_lsda 27, .Lexception10
	subq	$168, %rsp
	.cfi_def_cfa_offset 176
	movq	%rdi, 80(%rsp)
	movq	%rsi, 88(%rsp)
.Ltmp555:
	leaq	80(%rsp), %rdi
.Ltmp568:
	.loc	40 339 32 prologue_end
	callq	_ZN4core3ptr6unique15Unique$LT$T$GT$6as_ref17he2cc73ff9e1fdca6E
.Ltmp556:
	movq	%rdx, 72(%rsp)
	jmp	.LBB165_3
.LBB165_1:
	.loc	40 344 1
	jmp	.LBB165_11
.LBB165_2:
.Ltmp567:
	.loc	40 0 1 is_stmt 0
	movq	%rax, %rcx
	movl	%edx, %eax
	movq	%rcx, 104(%rsp)
	movl	%eax, 112(%rsp)
	jmp	.LBB165_1
.LBB165_3:
	movq	72(%rsp), %rax
	.loc	40 339 20 is_stmt 1
	shlq	$3, %rax
	movq	%rax, 120(%rsp)
	movq	120(%rsp), %rax
	movq	%rax, 64(%rsp)
	movq	%rax, 128(%rsp)
.Ltmp557:
	.loc	40 0 20 is_stmt 0
	leaq	80(%rsp), %rdi
.Ltmp569:
	.loc	40 340 38 is_stmt 1
	callq	_ZN4core3ptr6unique15Unique$LT$T$GT$6as_ref17he2cc73ff9e1fdca6E
.Ltmp558:
	jmp	.LBB165_5
.LBB165_5:
	.loc	40 340 21 is_stmt 0
	movq	$8, 136(%rsp)
	movq	136(%rsp), %rax
	movq	%rax, 56(%rsp)
	movq	%rax, 144(%rsp)
.Ltmp559:
	.loc	40 0 21
	movq	56(%rsp), %rsi
	movq	64(%rsp), %rdi
.Ltmp570:
	.loc	40 341 22 is_stmt 1
	callq	_ZN4core5alloc6layout6Layout25from_size_align_unchecked17he46594d435bff2cbE
.Ltmp560:
	movq	%rdx, 40(%rsp)
	movq	%rax, 48(%rsp)
	jmp	.LBB165_7
.LBB165_7:
	.loc	40 0 22 is_stmt 0
	movq	40(%rsp), %rax
	movq	48(%rsp), %rcx
	.loc	40 341 22
	movq	%rcx, %rdx
	movq	%rdx, 16(%rsp)
	movq	%rax, %rdx
	movq	%rdx, 24(%rsp)
	movq	%rcx, 152(%rsp)
	movq	%rax, 160(%rsp)
.Ltmp571:
	.loc	40 342 37 is_stmt 1
	movq	80(%rsp), %rdi
	movq	88(%rsp), %rsi
.Ltmp561:
	callq	_ZN4core3ptr6unique15Unique$LT$T$GT$4cast17h77969de65e574b5dE
.Ltmp562:
	movq	%rax, 32(%rsp)
	jmp	.LBB165_8
.LBB165_8:
.Ltmp563:
	.loc	40 0 37 is_stmt 0
	movq	32(%rsp), %rdi
	.loc	40 342 26
	callq	_ZN119_$LT$core..ptr..non_null..NonNull$LT$T$GT$$u20$as$u20$core..convert..From$LT$core..ptr..unique..Unique$LT$T$GT$$GT$$GT$4from17h1ca6195793ac1f0cE
.Ltmp564:
	movq	%rax, 8(%rsp)
	jmp	.LBB165_9
.LBB165_9:
.Ltmp565:
	.loc	40 0 26
	movq	24(%rsp), %rcx
	movq	16(%rsp), %rdx
	movq	8(%rsp), %rsi
	leaq	96(%rsp), %rdi
	.loc	40 342 9
	callq	_ZN63_$LT$alloc..alloc..Global$u20$as$u20$core..alloc..Allocator$GT$10deallocate17ha7764f4f3749d6fcE
.Ltmp566:
	jmp	.LBB165_10
.Ltmp572:
.LBB165_10:
	.loc	40 344 1 is_stmt 1
	jmp	.LBB165_12
.LBB165_11:
	.loc	40 334 1
	movq	104(%rsp), %rdi
	callq	_Unwind_Resume@PLT
	ud2
.LBB165_12:
	.loc	40 344 2
	addq	$168, %rsp
	.cfi_def_cfa_offset 8
	retq
.Ltmp573:
.Lfunc_end165:
	.size	_ZN5alloc5alloc8box_free17h32965968b849b6bfE, .Lfunc_end165-_ZN5alloc5alloc8box_free17h32965968b849b6bfE
	.cfi_endproc
	.section	.gcc_except_table._ZN5alloc5alloc8box_free17h32965968b849b6bfE,"a",@progbits
	.p2align	2
GCC_except_table165:
.Lexception10:
	.byte	255
	.byte	255
	.byte	1
	.uleb128 .Lcst_end10-.Lcst_begin10
.Lcst_begin10:
	.uleb128 .Ltmp555-.Lfunc_begin165
	.uleb128 .Ltmp566-.Ltmp555
	.uleb128 .Ltmp567-.Lfunc_begin165
	.byte	0
	.uleb128 .Ltmp566-.Lfunc_begin165
	.uleb128 .Lfunc_end165-.Ltmp566
	.byte	0
	.byte	0
.Lcst_end10:
	.p2align	2

	.section	.text._ZN5alloc5alloc8box_free17he7173e823032da71E,"ax",@progbits
	.p2align	4, 0x90
	.type	_ZN5alloc5alloc8box_free17he7173e823032da71E,@function
_ZN5alloc5alloc8box_free17he7173e823032da71E:
.Lfunc_begin166:
	.loc	40 334 0
	.cfi_startproc
	.cfi_personality 155, DW.ref.rust_eh_personality
	.cfi_lsda 27, .Lexception11
	subq	$152, %rsp
	.cfi_def_cfa_offset 160
	movq	%rdi, 72(%rsp)
.Ltmp574:
	leaq	72(%rsp), %rdi
.Ltmp587:
	.loc	40 339 32 prologue_end
	callq	_ZN4core3ptr6unique15Unique$LT$T$GT$6as_ref17h1727a8ab5a70c8d5E
.Ltmp575:
	jmp	.LBB166_3
.LBB166_1:
	.loc	40 344 1
	jmp	.LBB166_11
.LBB166_2:
.Ltmp586:
	.loc	40 0 1 is_stmt 0
	movq	%rax, %rcx
	movl	%edx, %eax
	movq	%rcx, 88(%rsp)
	movl	%eax, 96(%rsp)
	jmp	.LBB166_1
.LBB166_3:
	.loc	40 339 20 is_stmt 1
	movq	$56, 104(%rsp)
	movq	104(%rsp), %rax
	movq	%rax, 64(%rsp)
	movq	%rax, 112(%rsp)
.Ltmp576:
	.loc	40 0 20 is_stmt 0
	leaq	72(%rsp), %rdi
.Ltmp588:
	.loc	40 340 38 is_stmt 1
	callq	_ZN4core3ptr6unique15Unique$LT$T$GT$6as_ref17h1727a8ab5a70c8d5E
.Ltmp577:
	jmp	.LBB166_5
.LBB166_5:
	.loc	40 340 21 is_stmt 0
	movq	$8, 120(%rsp)
	movq	120(%rsp), %rax
	movq	%rax, 56(%rsp)
	movq	%rax, 128(%rsp)
.Ltmp578:
	.loc	40 0 21
	movq	56(%rsp), %rsi
	movq	64(%rsp), %rdi
.Ltmp589:
	.loc	40 341 22 is_stmt 1
	callq	_ZN4core5alloc6layout6Layout25from_size_align_unchecked17he46594d435bff2cbE
.Ltmp579:
	movq	%rdx, 40(%rsp)
	movq	%rax, 48(%rsp)
	jmp	.LBB166_7
.LBB166_7:
	.loc	40 0 22 is_stmt 0
	movq	40(%rsp), %rax
	movq	48(%rsp), %rcx
	.loc	40 341 22
	movq	%rcx, %rdx
	movq	%rdx, 16(%rsp)
	movq	%rax, %rdx
	movq	%rdx, 24(%rsp)
	movq	%rcx, 136(%rsp)
	movq	%rax, 144(%rsp)
.Ltmp590:
	.loc	40 342 37 is_stmt 1
	movq	72(%rsp), %rdi
.Ltmp580:
	callq	_ZN4core3ptr6unique15Unique$LT$T$GT$4cast17h89249a7696c43315E
.Ltmp581:
	movq	%rax, 32(%rsp)
	jmp	.LBB166_8
.LBB166_8:
.Ltmp582:
	.loc	40 0 37 is_stmt 0
	movq	32(%rsp), %rdi
	.loc	40 342 26
	callq	_ZN119_$LT$core..ptr..non_null..NonNull$LT$T$GT$$u20$as$u20$core..convert..From$LT$core..ptr..unique..Unique$LT$T$GT$$GT$$GT$4from17h1ca6195793ac1f0cE
.Ltmp583:
	movq	%rax, 8(%rsp)
	jmp	.LBB166_9
.LBB166_9:
.Ltmp584:
	.loc	40 0 26
	movq	24(%rsp), %rcx
	movq	16(%rsp), %rdx
	movq	8(%rsp), %rsi
	leaq	80(%rsp), %rdi
	.loc	40 342 9
	callq	_ZN63_$LT$alloc..alloc..Global$u20$as$u20$core..alloc..Allocator$GT$10deallocate17ha7764f4f3749d6fcE
.Ltmp585:
	jmp	.LBB166_10
.Ltmp591:
.LBB166_10:
	.loc	40 344 1 is_stmt 1
	jmp	.LBB166_12
.LBB166_11:
	.loc	40 334 1
	movq	88(%rsp), %rdi
	callq	_Unwind_Resume@PLT
	ud2
.LBB166_12:
	.loc	40 344 2
	addq	$152, %rsp
	.cfi_def_cfa_offset 8
	retq
.Ltmp592:
.Lfunc_end166:
	.size	_ZN5alloc5alloc8box_free17he7173e823032da71E, .Lfunc_end166-_ZN5alloc5alloc8box_free17he7173e823032da71E
	.cfi_endproc
	.section	.gcc_except_table._ZN5alloc5alloc8box_free17he7173e823032da71E,"a",@progbits
	.p2align	2
GCC_except_table166:
.Lexception11:
	.byte	255
	.byte	255
	.byte	1
	.uleb128 .Lcst_end11-.Lcst_begin11
.Lcst_begin11:
	.uleb128 .Ltmp574-.Lfunc_begin166
	.uleb128 .Ltmp585-.Ltmp574
	.uleb128 .Ltmp586-.Lfunc_begin166
	.byte	0
	.uleb128 .Ltmp585-.Lfunc_begin166
	.uleb128 .Lfunc_end166-.Ltmp585
	.byte	0
	.byte	0
.Lcst_end11:
	.p2align	2

	.section	".text._ZN5alloc5boxed16Box$LT$T$C$A$GT$11into_unique17h1929e078b50f6361E","ax",@progbits
	.p2align	4, 0x90
	.type	_ZN5alloc5boxed16Box$LT$T$C$A$GT$11into_unique17h1929e078b50f6361E,@function
_ZN5alloc5boxed16Box$LT$T$C$A$GT$11into_unique17h1929e078b50f6361E:
.Lfunc_begin167:
	.file	42 "/builddir/build/BUILD/rustc-1.62.1-src/library/alloc/src/boxed.rs"
	.loc	42 1092 0
	.cfi_startproc
	.cfi_personality 155, DW.ref.rust_eh_personality
	.cfi_lsda 27, .Lexception12
	subq	$104, %rsp
	.cfi_def_cfa_offset 112
	movq	%rdi, 40(%rsp)
	movq	%rsi, 48(%rsp)
.Ltmp604:
	.loc	42 1098 13 prologue_end
	movb	$0, 79(%rsp)
	movb	$1, 79(%rsp)
.Ltmp593:
	leaq	40(%rsp), %rdi
	.loc	42 1098 30 is_stmt 0
	callq	_ZN4core3ptr4read17h48ccf245a7ba4db6E
.Ltmp594:
	jmp	.LBB167_3
.LBB167_1:
	.loc	42 1100 5 is_stmt 1
	testb	$1, 79(%rsp)
	jne	.LBB167_9
	jmp	.LBB167_8
.LBB167_2:
.Ltmp595:
	.loc	42 0 5 is_stmt 0
	movq	%rax, %rcx
	movl	%edx, %eax
	movq	%rcx, 88(%rsp)
	movl	%eax, 96(%rsp)
	jmp	.LBB167_1
.LBB167_3:
.Ltmp605:
	.loc	42 1099 33 is_stmt 1
	movb	$0, 79(%rsp)
	movq	40(%rsp), %rdi
	movq	48(%rsp), %rsi
.Ltmp596:
	.loc	42 1099 23 is_stmt 0
	callq	_ZN5alloc5boxed16Box$LT$T$C$A$GT$4leak17hd0ca9ba1d1cf922fE
.Ltmp597:
	movq	%rdx, 24(%rsp)
	movq	%rax, 32(%rsp)
	jmp	.LBB167_6
.Ltmp606:
.LBB167_4:
	.loc	42 1100 5 is_stmt 1
	jmp	.LBB167_1
.LBB167_5:
.Ltmp600:
	.loc	42 0 5 is_stmt 0
	movq	%rax, %rcx
	movl	%edx, %eax
	movq	%rcx, 88(%rsp)
	movl	%eax, 96(%rsp)
	jmp	.LBB167_4
.LBB167_6:
.Ltmp598:
	movq	24(%rsp), %rsi
	movq	32(%rsp), %rdi
.Ltmp607:
	.loc	42 1099 10 is_stmt 1
	callq	_ZN95_$LT$core..ptr..unique..Unique$LT$T$GT$$u20$as$u20$core..convert..From$LT$$RF$mut$u20$T$GT$$GT$4from17h54800eefe9b01710E
.Ltmp599:
	movq	%rdx, 8(%rsp)
	movq	%rax, 16(%rsp)
	jmp	.LBB167_7
.LBB167_7:
	.loc	42 0 10 is_stmt 0
	movq	8(%rsp), %rax
	movq	16(%rsp), %rcx
	.loc	42 1099 9
	movq	%rcx, 56(%rsp)
	movq	%rax, 64(%rsp)
.Ltmp608:
	.loc	42 1100 6 is_stmt 1
	movq	56(%rsp), %rax
	movq	64(%rsp), %rdx
	addq	$104, %rsp
	.cfi_def_cfa_offset 8
	retq
.LBB167_8:
	.cfi_def_cfa_offset 112
	.loc	42 1092 5
	movq	88(%rsp), %rdi
	callq	_Unwind_Resume@PLT
	ud2
.LBB167_9:
.Ltmp601:
	.loc	42 0 5 is_stmt 0
	leaq	40(%rsp), %rdi
	.loc	42 1100 5 is_stmt 1
	callq	_ZN4core3ptr61drop_in_place$LT$alloc..boxed..Box$LT$$u5b$usize$u5d$$GT$$GT$17h91210f0dc59861e9E
.Ltmp602:
	jmp	.LBB167_8
.LBB167_10:
.Ltmp603:
	.loc	42 1092 5
	movq	_ZN4core9panicking15panic_no_unwind17h67cac67fd9fa30d7E@GOTPCREL(%rip), %rax
	callq	*%rax
	ud2
.Ltmp609:
.Lfunc_end167:
	.size	_ZN5alloc5boxed16Box$LT$T$C$A$GT$11into_unique17h1929e078b50f6361E, .Lfunc_end167-_ZN5alloc5boxed16Box$LT$T$C$A$GT$11into_unique17h1929e078b50f6361E
	.cfi_endproc
	.section	".gcc_except_table._ZN5alloc5boxed16Box$LT$T$C$A$GT$11into_unique17h1929e078b50f6361E","a",@progbits
	.p2align	2
GCC_except_table167:
.Lexception12:
	.byte	255
	.byte	255
	.byte	1
	.uleb128 .Lcst_end12-.Lcst_begin12
.Lcst_begin12:
	.uleb128 .Ltmp593-.Lfunc_begin167
	.uleb128 .Ltmp594-.Ltmp593
	.uleb128 .Ltmp595-.Lfunc_begin167
	.byte	0
	.uleb128 .Ltmp596-.Lfunc_begin167
	.uleb128 .Ltmp599-.Ltmp596
	.uleb128 .Ltmp600-.Lfunc_begin167
	.byte	0
	.uleb128 .Ltmp599-.Lfunc_begin167
	.uleb128 .Ltmp601-.Ltmp599
	.byte	0
	.byte	0
	.uleb128 .Ltmp601-.Lfunc_begin167
	.uleb128 .Ltmp602-.Ltmp601
	.uleb128 .Ltmp603-.Lfunc_begin167
	.byte	0
	.uleb128 .Ltmp602-.Lfunc_begin167
	.uleb128 .Lfunc_end167-.Ltmp602
	.byte	0
	.byte	0
.Lcst_end12:
	.p2align	2

	.section	".text._ZN5alloc5boxed16Box$LT$T$C$A$GT$23into_raw_with_allocator17h5cf90c2ea93ec639E","ax",@progbits
	.p2align	4, 0x90
	.type	_ZN5alloc5boxed16Box$LT$T$C$A$GT$23into_raw_with_allocator17h5cf90c2ea93ec639E,@function
_ZN5alloc5boxed16Box$LT$T$C$A$GT$23into_raw_with_allocator17h5cf90c2ea93ec639E:
.Lfunc_begin168:
	.loc	42 1079 0
	.cfi_startproc
	.cfi_personality 155, DW.ref.rust_eh_personality
	.cfi_lsda 27, .Lexception13
	subq	$104, %rsp
	.cfi_def_cfa_offset 112
	movq	%rdi, 48(%rsp)
	movq	%rsi, 56(%rsp)
.Ltmp613:
	.loc	42 1080 31 prologue_end
	callq	_ZN5alloc5boxed16Box$LT$T$C$A$GT$11into_unique17h1929e078b50f6361E
	movq	%rax, 16(%rsp)
	movq	%rdx, 24(%rsp)
	.loc	42 0 31 is_stmt 0
	movq	24(%rsp), %rsi
	movq	16(%rsp), %rdi
	.loc	42 1080 14
	movq	%rdi, 72(%rsp)
	movq	%rsi, 80(%rsp)
.Ltmp610:
.Ltmp614:
	.loc	42 1081 10 is_stmt 1
	callq	_ZN4core3ptr6unique15Unique$LT$T$GT$6as_ptr17h7e006c4c39531650E
.Ltmp611:
	movq	%rdx, (%rsp)
	movq	%rax, 8(%rsp)
	jmp	.LBB168_4
.Ltmp615:
.LBB168_2:
	.loc	42 1082 5
	jmp	.LBB168_5
.LBB168_3:
.Ltmp612:
	.loc	42 0 5 is_stmt 0
	movq	%rax, %rcx
	movl	%edx, %eax
	movq	%rcx, 88(%rsp)
	movl	%eax, 96(%rsp)
	jmp	.LBB168_2
.LBB168_4:
	movq	(%rsp), %rax
	movq	8(%rsp), %rcx
.Ltmp616:
	.loc	42 1081 9 is_stmt 1
	movq	%rcx, 32(%rsp)
	movq	%rax, 40(%rsp)
.Ltmp617:
	.loc	42 1082 6
	movq	32(%rsp), %rax
	movq	40(%rsp), %rdx
	addq	$104, %rsp
	.cfi_def_cfa_offset 8
	retq
.LBB168_5:
	.cfi_def_cfa_offset 112
	.loc	42 1079 5
	movq	88(%rsp), %rdi
	callq	_Unwind_Resume@PLT
	ud2
.Ltmp618:
.Lfunc_end168:
	.size	_ZN5alloc5boxed16Box$LT$T$C$A$GT$23into_raw_with_allocator17h5cf90c2ea93ec639E, .Lfunc_end168-_ZN5alloc5boxed16Box$LT$T$C$A$GT$23into_raw_with_allocator17h5cf90c2ea93ec639E
	.cfi_endproc
	.section	".gcc_except_table._ZN5alloc5boxed16Box$LT$T$C$A$GT$23into_raw_with_allocator17h5cf90c2ea93ec639E","a",@progbits
	.p2align	2
GCC_except_table168:
.Lexception13:
	.byte	255
	.byte	255
	.byte	1
	.uleb128 .Lcst_end13-.Lcst_begin13
.Lcst_begin13:
	.uleb128 .Lfunc_begin168-.Lfunc_begin168
	.uleb128 .Ltmp610-.Lfunc_begin168
	.byte	0
	.byte	0
	.uleb128 .Ltmp610-.Lfunc_begin168
	.uleb128 .Ltmp611-.Ltmp610
	.uleb128 .Ltmp612-.Lfunc_begin168
	.byte	0
	.uleb128 .Ltmp611-.Lfunc_begin168
	.uleb128 .Lfunc_end168-.Ltmp611
	.byte	0
	.byte	0
.Lcst_end13:
	.p2align	2

	.section	".text._ZN5alloc5boxed16Box$LT$T$C$A$GT$4leak17hd0ca9ba1d1cf922fE","ax",@progbits
	.p2align	4, 0x90
	.type	_ZN5alloc5boxed16Box$LT$T$C$A$GT$4leak17hd0ca9ba1d1cf922fE,@function
_ZN5alloc5boxed16Box$LT$T$C$A$GT$4leak17hd0ca9ba1d1cf922fE:
.Lfunc_begin169:
	.loc	42 1152 0
	.cfi_startproc
	subq	$104, %rsp
	.cfi_def_cfa_offset 112
	movq	%rdi, 48(%rsp)
	movq	%rsi, 56(%rsp)
	movq	%rdi, 80(%rsp)
	movq	%rsi, 88(%rsp)
.Ltmp619:
	.file	43 "/builddir/build/BUILD/rustc-1.62.1-src/library/core/src/mem/manually_drop.rs"
	.loc	43 71 9 prologue_end
	movq	%rdi, 64(%rsp)
	movq	%rsi, 72(%rsp)
	.loc	43 72 6
	movq	64(%rsp), %rax
	movq	72(%rsp), %rcx
.Ltmp620:
	.loc	42 1156 24
	movq	%rcx, 40(%rsp)
	movq	%rax, 32(%rsp)
	.loc	42 0 24 is_stmt 0
	leaq	32(%rsp), %rax
	movq	%rax, 96(%rsp)
.Ltmp621:
	.loc	43 154 9 is_stmt 1
	leaq	32(%rsp), %rax
	movq	%rax, 24(%rsp)
.Ltmp622:
	.loc	43 0 9 is_stmt 0
	movq	24(%rsp), %rax
	.loc	42 1156 24 is_stmt 1
	movq	(%rax), %rdi
	movq	8(%rax), %rsi
	callq	_ZN4core3ptr6unique15Unique$LT$T$GT$6as_ptr17h7e006c4c39531650E
	movq	%rax, 8(%rsp)
	movq	%rdx, 16(%rsp)
	.loc	42 0 24 is_stmt 0
	movq	16(%rsp), %rdx
	movq	8(%rsp), %rax
	.loc	42 1157 6 is_stmt 1
	addq	$104, %rsp
	.cfi_def_cfa_offset 8
	retq
.Ltmp623:
.Lfunc_end169:
	.size	_ZN5alloc5boxed16Box$LT$T$C$A$GT$4leak17hd0ca9ba1d1cf922fE, .Lfunc_end169-_ZN5alloc5boxed16Box$LT$T$C$A$GT$4leak17hd0ca9ba1d1cf922fE
	.cfi_endproc

	.section	".text._ZN5alloc5slice29_$LT$impl$u20$$u5b$T$u5d$$GT$6to_vec17h38329a84e55d7675E","ax",@progbits
	.p2align	4, 0x90
	.type	_ZN5alloc5slice29_$LT$impl$u20$$u5b$T$u5d$$GT$6to_vec17h38329a84e55d7675E,@function
_ZN5alloc5slice29_$LT$impl$u20$$u5b$T$u5d$$GT$6to_vec17h38329a84e55d7675E:
.Lfunc_begin170:
	.loc	35 477 0
	.cfi_startproc
	subq	$24, %rsp
	.cfi_def_cfa_offset 32
	movq	%rdi, %rax
	movq	%rax, (%rsp)
	movq	%rsi, 8(%rsp)
	movq	%rdx, 16(%rsp)
.Ltmp624:
	.loc	35 481 9 prologue_end
	callq	_ZN5alloc5slice29_$LT$impl$u20$$u5b$T$u5d$$GT$9to_vec_in17h8bb2123fb666aa94E
	.loc	35 0 9 is_stmt 0
	movq	(%rsp), %rax
	.loc	35 482 6 is_stmt 1
	addq	$24, %rsp
	.cfi_def_cfa_offset 8
	retq
.Ltmp625:
.Lfunc_end170:
	.size	_ZN5alloc5slice29_$LT$impl$u20$$u5b$T$u5d$$GT$6to_vec17h38329a84e55d7675E, .Lfunc_end170-_ZN5alloc5slice29_$LT$impl$u20$$u5b$T$u5d$$GT$6to_vec17h38329a84e55d7675E
	.cfi_endproc

	.section	".text._ZN5alloc5slice29_$LT$impl$u20$$u5b$T$u5d$$GT$8into_vec17h2dc6dd7c565f1d3fE","ax",@progbits
	.p2align	4, 0x90
	.type	_ZN5alloc5slice29_$LT$impl$u20$$u5b$T$u5d$$GT$8into_vec17h2dc6dd7c565f1d3fE,@function
_ZN5alloc5slice29_$LT$impl$u20$$u5b$T$u5d$$GT$8into_vec17h2dc6dd7c565f1d3fE:
.Lfunc_begin171:
	.loc	35 526 0
	.cfi_startproc
	subq	$24, %rsp
	.cfi_def_cfa_offset 32
	movq	%rdi, %rax
	movq	%rax, (%rsp)
	movq	%rsi, 8(%rsp)
	movq	%rdx, 16(%rsp)
.Ltmp626:
	.loc	35 528 9 prologue_end
	callq	_ZN5alloc5slice4hack8into_vec17h4cd6fbb83cb1e182E
	.loc	35 0 9 is_stmt 0
	movq	(%rsp), %rax
	.loc	35 529 6 is_stmt 1
	addq	$24, %rsp
	.cfi_def_cfa_offset 8
	retq
.Ltmp627:
.Lfunc_end171:
	.size	_ZN5alloc5slice29_$LT$impl$u20$$u5b$T$u5d$$GT$8into_vec17h2dc6dd7c565f1d3fE, .Lfunc_end171-_ZN5alloc5slice29_$LT$impl$u20$$u5b$T$u5d$$GT$8into_vec17h2dc6dd7c565f1d3fE
	.cfi_endproc

	.section	".text._ZN5alloc5slice29_$LT$impl$u20$$u5b$T$u5d$$GT$9to_vec_in17h8bb2123fb666aa94E","ax",@progbits
	.p2align	4, 0x90
	.type	_ZN5alloc5slice29_$LT$impl$u20$$u5b$T$u5d$$GT$9to_vec_in17h8bb2123fb666aa94E,@function
_ZN5alloc5slice29_$LT$impl$u20$$u5b$T$u5d$$GT$9to_vec_in17h8bb2123fb666aa94E:
.Lfunc_begin172:
	.loc	35 501 0
	.cfi_startproc
	subq	$40, %rsp
	.cfi_def_cfa_offset 48
	movq	%rdi, %rax
	movq	%rax, 8(%rsp)
	movq	%rsi, 16(%rsp)
	movq	%rdx, 24(%rsp)
.Ltmp628:
	.loc	35 506 9 prologue_end
	callq	_ZN5alloc5slice4hack6to_vec17hc00ae6b7716fd0b3E
	.loc	35 0 9 is_stmt 0
	movq	8(%rsp), %rax
	.loc	35 507 6 is_stmt 1
	addq	$40, %rsp
	.cfi_def_cfa_offset 8
	retq
.Ltmp629:
.Lfunc_end172:
	.size	_ZN5alloc5slice29_$LT$impl$u20$$u5b$T$u5d$$GT$9to_vec_in17h8bb2123fb666aa94E, .Lfunc_end172-_ZN5alloc5slice29_$LT$impl$u20$$u5b$T$u5d$$GT$9to_vec_in17h8bb2123fb666aa94E
	.cfi_endproc

	.section	.text._ZN5alloc5slice4hack6to_vec17hc00ae6b7716fd0b3E,"ax",@progbits
	.p2align	4, 0x90
	.type	_ZN5alloc5slice4hack6to_vec17hc00ae6b7716fd0b3E,@function
_ZN5alloc5slice4hack6to_vec17hc00ae6b7716fd0b3E:
.Lfunc_begin173:
	.loc	35 175 0
	.cfi_startproc
	subq	$40, %rsp
	.cfi_def_cfa_offset 48
	movq	%rdi, %rax
	movq	%rax, 8(%rsp)
	movq	%rsi, 16(%rsp)
	movq	%rdx, 24(%rsp)
.Ltmp630:
	.loc	35 176 9 prologue_end
	callq	_ZN52_$LT$T$u20$as$u20$alloc..slice..hack..ConvertVec$GT$6to_vec17h438fd5d1ff4c2576E
	.loc	35 0 9 is_stmt 0
	movq	8(%rsp), %rax
	.loc	35 177 6 is_stmt 1
	addq	$40, %rsp
	.cfi_def_cfa_offset 8
	retq
.Ltmp631:
.Lfunc_end173:
	.size	_ZN5alloc5slice4hack6to_vec17hc00ae6b7716fd0b3E, .Lfunc_end173-_ZN5alloc5slice4hack6to_vec17hc00ae6b7716fd0b3E
	.cfi_endproc

	.section	.text._ZN5alloc5slice4hack8into_vec17h4cd6fbb83cb1e182E,"ax",@progbits
	.p2align	4, 0x90
	.type	_ZN5alloc5slice4hack8into_vec17h4cd6fbb83cb1e182E,@function
_ZN5alloc5slice4hack8into_vec17h4cd6fbb83cb1e182E:
.Lfunc_begin174:
	.loc	35 165 0
	.cfi_startproc
	.cfi_personality 155, DW.ref.rust_eh_personality
	.cfi_lsda 27, .Lexception14
	subq	$120, %rsp
	.cfi_def_cfa_offset 128
	movq	%rdi, 24(%rsp)
	movq	%rdi, 32(%rsp)
	movq	%rsi, 48(%rsp)
	movq	%rdx, 56(%rsp)
.Ltmp642:
	.loc	35 167 17 prologue_end
	movb	$0, 71(%rsp)
	movb	$1, 71(%rsp)
	.loc	35 167 23 is_stmt 0
	movq	48(%rsp), %rdi
	movq	56(%rsp), %rsi
.Ltmp632:
	callq	_ZN4core5slice29_$LT$impl$u20$$u5b$T$u5d$$GT$3len17hf8a49ab1b7a82abbE
.Ltmp633:
	movq	%rax, 40(%rsp)
	jmp	.LBB174_3
.LBB174_1:
	.loc	35 171 5 is_stmt 1
	testb	$1, 71(%rsp)
	jne	.LBB174_7
	jmp	.LBB174_6
.LBB174_2:
.Ltmp638:
	.loc	35 0 5 is_stmt 0
	movq	%rax, %rcx
	movl	%edx, %eax
	movq	%rcx, 80(%rsp)
	movl	%eax, 88(%rsp)
	jmp	.LBB174_1
.LBB174_3:
	movq	40(%rsp), %rax
	.loc	35 167 23 is_stmt 1
	movq	%rax, 96(%rsp)
.Ltmp643:
	.loc	35 168 59
	movb	$0, 71(%rsp)
	movq	48(%rsp), %rdi
	movq	56(%rsp), %rsi
.Ltmp634:
	.loc	35 168 30 is_stmt 0
	callq	_ZN5alloc5boxed16Box$LT$T$C$A$GT$23into_raw_with_allocator17h5cf90c2ea93ec639E
.Ltmp635:
	movq	%rdx, 8(%rsp)
	movq	%rax, 16(%rsp)
	jmp	.LBB174_4
.LBB174_4:
	.loc	35 0 30
	movq	40(%rsp), %rcx
	movq	16(%rsp), %rsi
	movq	24(%rsp), %rdi
	movq	8(%rsp), %rax
	.loc	35 168 18
	movq	%rsi, 104(%rsp)
	movq	%rax, 112(%rsp)
.Ltmp636:
.Ltmp644:
	.loc	35 169 13 is_stmt 1
	movq	%rcx, %rdx
	callq	_ZN5alloc3vec16Vec$LT$T$C$A$GT$17from_raw_parts_in17h60a25914902ddcb1E
.Ltmp637:
	jmp	.LBB174_5
.Ltmp645:
.LBB174_5:
	.loc	35 0 13 is_stmt 0
	movq	32(%rsp), %rax
	.loc	35 171 6 is_stmt 1
	addq	$120, %rsp
	.cfi_def_cfa_offset 8
	retq
.LBB174_6:
	.cfi_def_cfa_offset 128
	.loc	35 165 5
	movq	80(%rsp), %rdi
	callq	_Unwind_Resume@PLT
	ud2
.LBB174_7:
.Ltmp639:
	.loc	35 0 5 is_stmt 0
	leaq	48(%rsp), %rdi
	.loc	35 171 5 is_stmt 1
	callq	_ZN4core3ptr61drop_in_place$LT$alloc..boxed..Box$LT$$u5b$usize$u5d$$GT$$GT$17h91210f0dc59861e9E
.Ltmp640:
	jmp	.LBB174_6
.LBB174_8:
.Ltmp641:
	.loc	35 165 5
	movq	_ZN4core9panicking15panic_no_unwind17h67cac67fd9fa30d7E@GOTPCREL(%rip), %rax
	callq	*%rax
	ud2
.Ltmp646:
.Lfunc_end174:
	.size	_ZN5alloc5slice4hack8into_vec17h4cd6fbb83cb1e182E, .Lfunc_end174-_ZN5alloc5slice4hack8into_vec17h4cd6fbb83cb1e182E
	.cfi_endproc
	.section	.gcc_except_table._ZN5alloc5slice4hack8into_vec17h4cd6fbb83cb1e182E,"a",@progbits
	.p2align	2
GCC_except_table174:
.Lexception14:
	.byte	255
	.byte	255
	.byte	1
	.uleb128 .Lcst_end14-.Lcst_begin14
.Lcst_begin14:
	.uleb128 .Ltmp632-.Lfunc_begin174
	.uleb128 .Ltmp637-.Ltmp632
	.uleb128 .Ltmp638-.Lfunc_begin174
	.byte	0
	.uleb128 .Ltmp637-.Lfunc_begin174
	.uleb128 .Ltmp639-.Ltmp637
	.byte	0
	.byte	0
	.uleb128 .Ltmp639-.Lfunc_begin174
	.uleb128 .Ltmp640-.Ltmp639
	.uleb128 .Ltmp641-.Lfunc_begin174
	.byte	0
	.uleb128 .Ltmp640-.Lfunc_begin174
	.uleb128 .Lfunc_end174-.Ltmp640
	.byte	0
	.byte	0
.Lcst_end14:
	.p2align	2

	.section	".text._ZN5alloc5slice64_$LT$impl$u20$alloc..borrow..ToOwned$u20$for$u20$$u5b$T$u5d$$GT$8to_owned17hac9bdbf8f05283e8E","ax",@progbits
	.p2align	4, 0x90
	.type	_ZN5alloc5slice64_$LT$impl$u20$alloc..borrow..ToOwned$u20$for$u20$$u5b$T$u5d$$GT$8to_owned17hac9bdbf8f05283e8E,@function
_ZN5alloc5slice64_$LT$impl$u20$alloc..borrow..ToOwned$u20$for$u20$$u5b$T$u5d$$GT$8to_owned17hac9bdbf8f05283e8E:
.Lfunc_begin175:
	.loc	35 855 0
	.cfi_startproc
	subq	$24, %rsp
	.cfi_def_cfa_offset 32
	movq	%rdi, %rax
	movq	%rax, (%rsp)
	movq	%rsi, 8(%rsp)
	movq	%rdx, 16(%rsp)
.Ltmp647:
	.loc	35 856 9 prologue_end
	callq	_ZN5alloc5slice29_$LT$impl$u20$$u5b$T$u5d$$GT$6to_vec17h38329a84e55d7675E
	.loc	35 0 9 is_stmt 0
	movq	(%rsp), %rax
	.loc	35 857 6 is_stmt 1
	addq	$24, %rsp
	.cfi_def_cfa_offset 8
	retq
.Ltmp648:
.Lfunc_end175:
	.size	_ZN5alloc5slice64_$LT$impl$u20$alloc..borrow..ToOwned$u20$for$u20$$u5b$T$u5d$$GT$8to_owned17hac9bdbf8f05283e8E, .Lfunc_end175-_ZN5alloc5slice64_$LT$impl$u20$alloc..borrow..ToOwned$u20$for$u20$$u5b$T$u5d$$GT$8to_owned17hac9bdbf8f05283e8E
	.cfi_endproc

	.section	.text._ZN5alloc6string6String19from_utf8_unchecked17hed3edfc814e790b3E,"ax",@progbits
	.p2align	4, 0x90
	.type	_ZN5alloc6string6String19from_utf8_unchecked17hed3edfc814e790b3E,@function
_ZN5alloc6string6String19from_utf8_unchecked17hed3edfc814e790b3E:
.Lfunc_begin176:
	.loc	36 844 0
	.cfi_startproc
	subq	$24, %rsp
	.cfi_def_cfa_offset 32
	movq	%rdi, %rax
.Ltmp649:
	.loc	36 845 23 prologue_end
	movq	(%rsi), %rcx
	movq	%rcx, (%rsp)
	movq	8(%rsi), %rcx
	movq	%rcx, 8(%rsp)
	movq	16(%rsi), %rcx
	movq	%rcx, 16(%rsp)
	.loc	36 845 9 is_stmt 0
	movq	(%rsp), %rcx
	movq	%rcx, (%rdi)
	movq	8(%rsp), %rcx
	movq	%rcx, 8(%rdi)
	movq	16(%rsp), %rcx
	movq	%rcx, 16(%rdi)
	.loc	36 846 6 is_stmt 1
	addq	$24, %rsp
	.cfi_def_cfa_offset 8
	retq
.Ltmp650:
.Lfunc_end176:
	.size	_ZN5alloc6string6String19from_utf8_unchecked17hed3edfc814e790b3E, .Lfunc_end176-_ZN5alloc6string6String19from_utf8_unchecked17hed3edfc814e790b3E
	.cfi_endproc

	.section	.text._ZN5alloc7raw_vec11alloc_guard17ha5d86e50a9d89806E,"ax",@progbits
	.p2align	4, 0x90
	.type	_ZN5alloc7raw_vec11alloc_guard17ha5d86e50a9d89806E,@function
_ZN5alloc7raw_vec11alloc_guard17ha5d86e50a9d89806E:
.Lfunc_begin177:
	.loc	39 504 0
	.cfi_startproc
	subq	$56, %rsp
	.cfi_def_cfa_offset 64
	movq	%rdi, 48(%rsp)
.Ltmp651:
	.loc	39 505 8 prologue_end
	xorl	%eax, %eax
	testb	$1, %al
	jne	.LBB177_2
	.loc	39 508 9
	movabsq	$-9223372036854775807, %rax
	movq	%rax, 24(%rsp)
	.loc	39 505 5
	jmp	.LBB177_4
.LBB177_2:
	.loc	39 506 13
	movq	$0, 40(%rsp)
	movq	32(%rsp), %rdi
	movq	40(%rsp), %rsi
	callq	_ZN50_$LT$T$u20$as$u20$core..convert..Into$LT$U$GT$$GT$4into17hef3fc054d3f26766E
	movq	%rax, (%rsp)
	movq	%rdx, 8(%rsp)
	.loc	39 0 13 is_stmt 0
	movq	8(%rsp), %rax
	movq	(%rsp), %rcx
	.loc	39 506 9
	movq	%rcx, 16(%rsp)
	movq	%rax, 24(%rsp)
.LBB177_4:
	.loc	39 510 2 is_stmt 1
	movq	16(%rsp), %rax
	movq	24(%rsp), %rdx
	addq	$56, %rsp
	.cfi_def_cfa_offset 8
	retq
.Ltmp652:
.Lfunc_end177:
	.size	_ZN5alloc7raw_vec11alloc_guard17ha5d86e50a9d89806E, .Lfunc_end177-_ZN5alloc7raw_vec11alloc_guard17ha5d86e50a9d89806E
	.cfi_endproc

	.section	.text._ZN5alloc7raw_vec11finish_grow17h5219e0b28d61cfc1E,"ax",@progbits
	.p2align	4, 0x90
	.type	_ZN5alloc7raw_vec11finish_grow17h5219e0b28d61cfc1E,@function
_ZN5alloc7raw_vec11finish_grow17h5219e0b28d61cfc1E:
.Lfunc_begin178:
	.loc	39 447 0
	.cfi_startproc
	subq	$280, %rsp
	.cfi_def_cfa_offset 288
	movq	%r8, 40(%rsp)
	movq	%rcx, 48(%rsp)
.Ltmp653:
	movq	%rdi, 56(%rsp)
	movq	%rdi, 64(%rsp)
	movq	%rsi, 192(%rsp)
	movq	%rdx, 200(%rsp)
.Ltmp654:
	movq	%r8, 208(%rsp)
.Ltmp655:
	.loc	39 456 22 prologue_end
	leaq	112(%rsp), %rdi
	callq	_ZN4core6result19Result$LT$T$C$E$GT$7map_err17hbc9b13574c60c0aeE
.Ltmp656:
	leaq	88(%rsp), %rdi
	leaq	112(%rsp), %rsi
	callq	_ZN79_$LT$core..result..Result$LT$T$C$E$GT$$u20$as$u20$core..ops..try_trait..Try$GT$6branch17h7c87b67d3fab7041E
.Ltmp657:
	movq	88(%rsp), %rax
	testq	%rax, %rax
	je	.LBB178_4
	jmp	.LBB178_25
.Ltmp658:
.LBB178_25:
	jmp	.LBB178_5
.Ltmp659:
	.cfi_def_cfa_offset 8
	ud2
.LBB178_4:
	.cfi_def_cfa_offset 288
.Ltmp660:
	movq	96(%rsp), %rcx
	movq	104(%rsp), %rax
	movq	%rcx, 240(%rsp)
	movq	%rax, 248(%rsp)
.Ltmp661:
	.loc	39 456 22 is_stmt 0
	movq	%rcx, 72(%rsp)
	movq	%rax, 80(%rsp)
.Ltmp662:
	.loc	39 458 17 is_stmt 1
	leaq	72(%rsp), %rdi
	callq	_ZN4core5alloc6layout6Layout4size17h097db01888c7f792E
	movq	%rax, 32(%rsp)
	jmp	.LBB178_8
.Ltmp663:
.LBB178_5:
	.loc	39 0 17 is_stmt 0
	movq	56(%rsp), %rdi
	.loc	39 456 62 is_stmt 1
	movq	96(%rsp), %rsi
	movq	104(%rsp), %rdx
	movq	%rsi, 224(%rsp)
	movq	%rdx, 232(%rsp)
.Ltmp664:
	.loc	39 456 22 is_stmt 0
	leaq	.L__unnamed_10(%rip), %rcx
	callq	_ZN153_$LT$core..result..Result$LT$T$C$F$GT$$u20$as$u20$core..ops..try_trait..FromResidual$LT$core..result..Result$LT$core..convert..Infallible$C$E$GT$$GT$$GT$13from_residual17hcec3344afc053af9E
.Ltmp665:
	.loc	41 1 1 is_stmt 1
	jmp	.LBB178_7
.Ltmp666:
.LBB178_7:
	.loc	39 472 2
	jmp	.LBB178_15
.Ltmp667:
.LBB178_8:
	.loc	39 0 2 is_stmt 0
	movq	32(%rsp), %rdi
.Ltmp668:
	.loc	39 458 5 is_stmt 1
	callq	_ZN5alloc7raw_vec11alloc_guard17ha5d86e50a9d89806E
	movq	%rax, 16(%rsp)
	movq	%rdx, 24(%rsp)
.Ltmp669:
	.loc	39 0 5 is_stmt 0
	movq	24(%rsp), %rsi
	movq	16(%rsp), %rdi
	.loc	39 458 5
	callq	_ZN79_$LT$core..result..Result$LT$T$C$E$GT$$u20$as$u20$core..ops..try_trait..Try$GT$6branch17h19dae3580726f7b4E
	movq	%rdx, 144(%rsp)
	movq	%rax, 136(%rsp)
.Ltmp670:
	movq	144(%rsp), %rax
	movabsq	$9223372036854775807, %rcx
	addq	%rcx, %rax
	setne	%al
	movzbl	%al, %eax
	je	.LBB178_12
	jmp	.LBB178_26
.Ltmp671:
.LBB178_26:
	jmp	.LBB178_13
.Ltmp672:
	.cfi_def_cfa_offset 8
	ud2
.LBB178_12:
	.cfi_def_cfa_offset 288
.Ltmp673:
	.loc	39 0 5
	movq	48(%rsp), %rdx
	.loc	39 460 25 is_stmt 1
	movl	$1, %eax
	xorl	%ecx, %ecx
	cmpq	$0, 16(%rdx)
	cmoveq	%rcx, %rax
	cmpq	$1, %rax
	je	.LBB178_16
	jmp	.LBB178_17
.Ltmp674:
.LBB178_13:
	.loc	39 0 25 is_stmt 0
	movq	56(%rsp), %rdi
	.loc	39 458 35 is_stmt 1
	movq	136(%rsp), %rsi
	movq	144(%rsp), %rdx
	movq	%rsi, 256(%rsp)
	movq	%rdx, 264(%rsp)
.Ltmp675:
	.loc	39 458 5 is_stmt 0
	leaq	.L__unnamed_11(%rip), %rcx
	callq	_ZN153_$LT$core..result..Result$LT$T$C$F$GT$$u20$as$u20$core..ops..try_trait..FromResidual$LT$core..result..Result$LT$core..convert..Infallible$C$E$GT$$GT$$GT$13from_residual17hc347e9b855d33a63E
.Ltmp676:
	.loc	41 1 1 is_stmt 1
	jmp	.LBB178_7
.Ltmp677:
.LBB178_15:
	.loc	41 0 1 is_stmt 0
	movq	64(%rsp), %rax
	.loc	39 472 2 is_stmt 1
	addq	$280, %rsp
	.cfi_def_cfa_offset 8
	retq
.Ltmp678:
.LBB178_16:
	.cfi_def_cfa_offset 288
	.loc	39 0 2 is_stmt 0
	movq	48(%rsp), %rax
.Ltmp679:
	.loc	39 460 31 is_stmt 1
	movq	(%rax), %rcx
	movq	%rcx, 8(%rsp)
	movq	%rcx, 272(%rsp)
	.loc	39 460 36 is_stmt 0
	movq	8(%rax), %rcx
	movq	16(%rax), %rax
	movq	%rcx, 168(%rsp)
	movq	%rax, 176(%rsp)
	.loc	39 464 32 is_stmt 1
	leaq	168(%rsp), %rdi
	callq	_ZN4core5alloc6layout6Layout5align17hccd89aca8e6b684cE
	jmp	.LBB178_20
.Ltmp680:
.LBB178_17:
	.loc	39 0 32 is_stmt 0
	movq	40(%rsp), %rdi
	.loc	39 468 24 is_stmt 1
	movq	72(%rsp), %rsi
	movq	80(%rsp), %rdx
	.loc	39 468 9 is_stmt 0
	callq	_ZN63_$LT$alloc..alloc..Global$u20$as$u20$core..alloc..Allocator$GT$8allocate17h46bdb81d1d7f1094E
	movq	%rdx, 160(%rsp)
	movq	%rax, 152(%rsp)
.Ltmp681:
	.loc	39 460 18 is_stmt 1
	jmp	.LBB178_19
.Ltmp682:
.LBB178_19:
	.loc	39 0 18 is_stmt 0
	movq	56(%rsp), %rdi
.Ltmp683:
	.loc	39 471 5 is_stmt 1
	movq	152(%rsp), %rsi
	movq	160(%rsp), %rdx
	.loc	39 471 20 is_stmt 0
	leaq	72(%rsp), %rax
	movq	%rax, 184(%rsp)
	.loc	39 471 5
	movq	184(%rsp), %rcx
	callq	_ZN4core6result19Result$LT$T$C$E$GT$7map_err17h6017c4f3522fa53aE
	jmp	.LBB178_24
.Ltmp684:
.LBB178_20:
	.loc	39 464 54 is_stmt 1
	leaq	72(%rsp), %rdi
	callq	_ZN4core5alloc6layout6Layout5align17hccd89aca8e6b684cE
.Ltmp685:
	.loc	39 0 54 is_stmt 0
	movq	8(%rsp), %rsi
	movq	40(%rsp), %rdi
	.loc	39 465 29 is_stmt 1
	movq	168(%rsp), %rdx
	movq	176(%rsp), %rcx
	.loc	39 465 41 is_stmt 0
	movq	72(%rsp), %r8
	movq	80(%rsp), %r9
	.loc	39 465 13
	callq	_ZN63_$LT$alloc..alloc..Global$u20$as$u20$core..alloc..Allocator$GT$4grow17h66f30d897c8aeb93E
	movq	%rdx, 160(%rsp)
	movq	%rax, 152(%rsp)
.Ltmp686:
	.loc	39 460 18 is_stmt 1
	jmp	.LBB178_19
.Ltmp687:
.LBB178_24:
	.loc	39 472 2
	jmp	.LBB178_15
.Ltmp688:
.Lfunc_end178:
	.size	_ZN5alloc7raw_vec11finish_grow17h5219e0b28d61cfc1E, .Lfunc_end178-_ZN5alloc7raw_vec11finish_grow17h5219e0b28d61cfc1E
	.cfi_endproc

	.section	".text._ZN5alloc7raw_vec11finish_grow28_$u7b$$u7b$closure$u7d$$u7d$17h0148822f73280628E","ax",@progbits
	.p2align	4, 0x90
	.type	_ZN5alloc7raw_vec11finish_grow28_$u7b$$u7b$closure$u7d$$u7d$17h0148822f73280628E,@function
_ZN5alloc7raw_vec11finish_grow28_$u7b$$u7b$closure$u7d$$u7d$17h0148822f73280628E:
.Lfunc_begin179:
	.loc	39 471 0
	.cfi_startproc
	subq	$56, %rsp
	.cfi_def_cfa_offset 64
	movq	%rdi, 40(%rsp)
.Ltmp689:
	.loc	39 471 45 prologue_end
	movq	(%rdi), %rcx
	movq	8(%rdi), %rax
	.loc	39 471 24 is_stmt 0
	movq	%rcx, 24(%rsp)
	movq	%rax, 32(%rsp)
	movq	24(%rsp), %rdi
	movq	32(%rsp), %rsi
	callq	_ZN50_$LT$T$u20$as$u20$core..convert..Into$LT$U$GT$$GT$4into17hef3fc054d3f26766E
	movq	%rax, 8(%rsp)
	movq	%rdx, 16(%rsp)
	.loc	39 0 24
	movq	16(%rsp), %rdx
	movq	8(%rsp), %rax
	.loc	39 471 84
	addq	$56, %rsp
	.cfi_def_cfa_offset 8
	retq
.Ltmp690:
.Lfunc_end179:
	.size	_ZN5alloc7raw_vec11finish_grow28_$u7b$$u7b$closure$u7d$$u7d$17h0148822f73280628E, .Lfunc_end179-_ZN5alloc7raw_vec11finish_grow28_$u7b$$u7b$closure$u7d$$u7d$17h0148822f73280628E
	.cfi_endproc

	.section	".text._ZN5alloc7raw_vec11finish_grow28_$u7b$$u7b$closure$u7d$$u7d$17hd18d189acdcaed39E","ax",@progbits
	.p2align	4, 0x90
	.type	_ZN5alloc7raw_vec11finish_grow28_$u7b$$u7b$closure$u7d$$u7d$17hd18d189acdcaed39E,@function
_ZN5alloc7raw_vec11finish_grow28_$u7b$$u7b$closure$u7d$$u7d$17hd18d189acdcaed39E:
.Lfunc_begin180:
	.loc	39 456 0 is_stmt 1
	.cfi_startproc
	subq	$32, %rsp
	.cfi_def_cfa_offset 40
.Ltmp691:
	.loc	39 456 45 prologue_end
	movq	$0, 8(%rsp)
	.loc	39 456 61 is_stmt 0
	movq	(%rsp), %rax
	movq	8(%rsp), %rdx
	addq	$32, %rsp
	.cfi_def_cfa_offset 8
	retq
.Ltmp692:
.Lfunc_end180:
	.size	_ZN5alloc7raw_vec11finish_grow28_$u7b$$u7b$closure$u7d$$u7d$17hd18d189acdcaed39E, .Lfunc_end180-_ZN5alloc7raw_vec11finish_grow28_$u7b$$u7b$closure$u7d$$u7d$17hd18d189acdcaed39E
	.cfi_endproc

	.section	.text._ZN5alloc7raw_vec14handle_reserve17h8d67e50138ba9782E,"ax",@progbits
	.p2align	4, 0x90
	.type	_ZN5alloc7raw_vec14handle_reserve17h8d67e50138ba9782E,@function
_ZN5alloc7raw_vec14handle_reserve17h8d67e50138ba9782E:
.Lfunc_begin181:
	.loc	39 486 0 is_stmt 1
	.cfi_startproc
	subq	$56, %rsp
	.cfi_def_cfa_offset 64
	movq	%rdi, 24(%rsp)
	movq	%rsi, 32(%rsp)
.Ltmp693:
	.loc	39 487 11 prologue_end
	callq	_ZN4core6result19Result$LT$T$C$E$GT$7map_err17he2f5af5991d7caabE
	movq	%rdx, 16(%rsp)
	movq	%rax, 8(%rsp)
	movq	16(%rsp), %rax
	movabsq	$9223372036854775807, %rcx
	addq	%rcx, %rax
	setne	%al
	movzbl	%al, %eax
	.loc	39 487 5 is_stmt 0
	je	.LBB181_3
	jmp	.LBB181_7
.LBB181_7:
	jmp	.LBB181_4
	.cfi_def_cfa_offset 8
	.loc	39 487 11
	ud2
.LBB181_3:
	.cfi_def_cfa_offset 64
	.loc	39 492 2 is_stmt 1
	addq	$56, %rsp
	.cfi_def_cfa_offset 8
	retq
.LBB181_4:
	.cfi_def_cfa_offset 64
	.loc	39 487 11
	movq	16(%rsp), %rax
	testq	%rax, %rax
	setne	%al
	movzbl	%al, %eax
	.loc	39 487 5 is_stmt 0
	je	.LBB181_5
	jmp	.LBB181_8
.LBB181_8:
	jmp	.LBB181_6
.LBB181_5:
	.loc	39 488 34 is_stmt 1
	movq	_ZN5alloc7raw_vec17capacity_overflow17h9726d2d17ed40f62E@GOTPCREL(%rip), %rax
	callq	*%rax
	ud2
.LBB181_6:
	.loc	39 489 26
	movq	8(%rsp), %rdi
	movq	16(%rsp), %rsi
	movq	%rdi, 40(%rsp)
	movq	%rsi, 48(%rsp)
.Ltmp694:
	.loc	39 489 43 is_stmt 0
	movq	_ZN5alloc5alloc18handle_alloc_error17hdcc80e546b4a46a8E@GOTPCREL(%rip), %rax
	callq	*%rax
	ud2
.Ltmp695:
.Lfunc_end181:
	.size	_ZN5alloc7raw_vec14handle_reserve17h8d67e50138ba9782E, .Lfunc_end181-_ZN5alloc7raw_vec14handle_reserve17h8d67e50138ba9782E
	.cfi_endproc

	.section	".text._ZN5alloc7raw_vec14handle_reserve28_$u7b$$u7b$closure$u7d$$u7d$17h401803e1a4378ce4E","ax",@progbits
	.p2align	4, 0x90
	.type	_ZN5alloc7raw_vec14handle_reserve28_$u7b$$u7b$closure$u7d$$u7d$17h401803e1a4378ce4E,@function
_ZN5alloc7raw_vec14handle_reserve28_$u7b$$u7b$closure$u7d$$u7d$17h401803e1a4378ce4E:
.Lfunc_begin182:
	.loc	39 487 0 is_stmt 1
	.cfi_startproc
	subq	$40, %rsp
	.cfi_def_cfa_offset 48
	movq	%rdi, 16(%rsp)
	movq	%rsi, 24(%rsp)
.Ltmp696:
	.loc	39 487 30 prologue_end
	leaq	16(%rsp), %rdi
	callq	_ZN5alloc11collections15TryReserveError4kind17h4cba50361100989bE
	movq	%rax, (%rsp)
	movq	%rdx, 8(%rsp)
	.loc	39 0 30 is_stmt 0
	movq	8(%rsp), %rdx
	movq	(%rsp), %rax
	.loc	39 487 38
	addq	$40, %rsp
	.cfi_def_cfa_offset 8
	retq
.Ltmp697:
.Lfunc_end182:
	.size	_ZN5alloc7raw_vec14handle_reserve28_$u7b$$u7b$closure$u7d$$u7d$17h401803e1a4378ce4E, .Lfunc_end182-_ZN5alloc7raw_vec14handle_reserve28_$u7b$$u7b$closure$u7d$$u7d$17h401803e1a4378ce4E
	.cfi_endproc

	.section	".text._ZN5alloc7raw_vec19RawVec$LT$T$C$A$GT$11allocate_in17h35be775f3f99f7ecE","ax",@progbits
	.p2align	4, 0x90
	.type	_ZN5alloc7raw_vec19RawVec$LT$T$C$A$GT$11allocate_in17h35be775f3f99f7ecE,@function
_ZN5alloc7raw_vec19RawVec$LT$T$C$A$GT$11allocate_in17h35be775f3f99f7ecE:
.Lfunc_begin183:
	.loc	39 169 0 is_stmt 1
	.cfi_startproc
	.cfi_personality 155, DW.ref.rust_eh_personality
	.cfi_lsda 27, .Lexception15
	subq	$312, %rsp
	.cfi_def_cfa_offset 320
	movq	%rdi, 120(%rsp)
	movb	%sil, %al
	andb	$1, %al
	movb	%al, 135(%rsp)
	movq	%rdi, 240(%rsp)
.Ltmp723:
	.loc	39 171 12 prologue_end
	movb	$0, 239(%rsp)
	movb	$1, 239(%rsp)
.Ltmp724:
	.file	44 "/builddir/build/BUILD/rustc-1.62.1-src/library/core/src/mem/mod.rs"
	.loc	44 312 2
	jmp	.LBB183_3
.Ltmp725:
.LBB183_1:
	.loc	39 202 5
	testb	$1, 239(%rsp)
	jne	.LBB183_34
	jmp	.LBB183_33
.LBB183_2:
.Ltmp722:
	.loc	39 0 5 is_stmt 0
	movq	%rax, %rcx
	movl	%edx, %eax
	movq	%rcx, 248(%rsp)
	movl	%eax, 256(%rsp)
	jmp	.LBB183_1
.LBB183_3:
	.loc	39 171 12 is_stmt 1
	movl	$1, %eax
	cmpq	$0, %rax
	jne	.LBB183_5
	movb	$1, 167(%rsp)
	jmp	.LBB183_6
.LBB183_5:
	.loc	39 0 12 is_stmt 0
	movq	120(%rsp), %rax
	.loc	39 171 40
	cmpq	$0, %rax
	sete	%al
	.loc	39 171 12
	andb	$1, %al
	movb	%al, 167(%rsp)
.LBB183_6:
	testb	$1, 167(%rsp)
	jne	.LBB183_8
.Ltmp698:
	.loc	39 0 12
	movq	120(%rsp), %rdi
	.loc	39 176 32 is_stmt 1
	callq	_ZN4core5alloc6layout6Layout5array17h14502127a1859509E
.Ltmp699:
	movq	%rdx, 104(%rsp)
	movq	%rax, 112(%rsp)
	jmp	.LBB183_11
.LBB183_8:
	.loc	39 172 26
	movb	$0, 239(%rsp)
.Ltmp720:
	.loc	39 172 13 is_stmt 0
	callq	_ZN5alloc7raw_vec19RawVec$LT$T$C$A$GT$6new_in17hac16ec31cf3b137fE
.Ltmp721:
	movq	%rdx, 88(%rsp)
	movq	%rax, 96(%rsp)
	jmp	.LBB183_9
.LBB183_9:
	.loc	39 0 13
	movq	88(%rsp), %rax
	movq	96(%rsp), %rcx
	.loc	39 172 13
	movq	%rcx, 144(%rsp)
	movq	%rax, 152(%rsp)
.LBB183_10:
	.loc	39 202 6 is_stmt 1
	movq	144(%rsp), %rax
	movq	152(%rsp), %rdx
	addq	$312, %rsp
	.cfi_def_cfa_offset 8
	retq
.LBB183_11:
	.cfi_def_cfa_offset 320
	.loc	39 0 6 is_stmt 0
	movq	104(%rsp), %rax
	movq	112(%rsp), %rcx
	.loc	39 176 32 is_stmt 1
	movq	%rcx, 184(%rsp)
	movq	%rax, 192(%rsp)
	movq	192(%rsp), %rax
	testq	%rax, %rax
	sete	%al
	movzbl	%al, %eax
	.loc	39 176 26 is_stmt 0
	jne	.LBB183_13
	jmp	.LBB183_35
.LBB183_35:
	jmp	.LBB183_14
	.cfi_def_cfa_offset 8
	.loc	39 176 32
	ud2
.LBB183_13:
	.cfi_def_cfa_offset 320
	.loc	39 177 20 is_stmt 1
	movq	184(%rsp), %rcx
	movq	192(%rsp), %rax
	movq	%rcx, 264(%rsp)
	movq	%rax, 272(%rsp)
.Ltmp726:
	.loc	39 177 31 is_stmt 0
	movq	%rcx, 168(%rsp)
	movq	%rax, 176(%rsp)
.Ltmp702:
	leaq	168(%rsp), %rdi
.Ltmp727:
	.loc	39 180 31 is_stmt 1
	callq	_ZN4core5alloc6layout6Layout4size17h097db01888c7f792E
.Ltmp703:
	movq	%rax, 80(%rsp)
	jmp	.LBB183_16
.Ltmp728:
.LBB183_14:
.Ltmp700:
	.loc	39 178 27
	movq	_ZN5alloc7raw_vec17capacity_overflow17h9726d2d17ed40f62E@GOTPCREL(%rip), %rax
	callq	*%rax
.Ltmp701:
	jmp	.LBB183_15
.LBB183_15:
	.loc	39 0 27 is_stmt 0
	ud2
.LBB183_16:
.Ltmp704:
	movq	80(%rsp), %rdi
.Ltmp729:
	.loc	39 180 19 is_stmt 1
	callq	_ZN5alloc7raw_vec11alloc_guard17ha5d86e50a9d89806E
.Ltmp705:
	movq	%rdx, 64(%rsp)
	movq	%rax, 72(%rsp)
	jmp	.LBB183_17
.LBB183_17:
	.loc	39 0 19 is_stmt 0
	movq	64(%rsp), %rax
	movq	72(%rsp), %rcx
	.loc	39 180 19
	movq	%rcx, 200(%rsp)
	movq	%rax, 208(%rsp)
	movq	208(%rsp), %rax
	movabsq	$9223372036854775807, %rcx
	addq	%rcx, %rax
	setne	%al
	movzbl	%al, %eax
	.loc	39 180 13
	je	.LBB183_19
	jmp	.LBB183_36
.LBB183_36:
	jmp	.LBB183_20
	.cfi_def_cfa_offset 8
	.loc	39 180 19
	ud2
.LBB183_19:
	.cfi_def_cfa_offset 320
	.loc	39 184 32 is_stmt 1
	movzbl	135(%rsp), %eax
	.loc	39 184 26 is_stmt 0
	testb	$1, %al
	je	.LBB183_22
	jmp	.LBB183_37
.LBB183_37:
	jmp	.LBB183_23
.LBB183_20:
.Ltmp706:
	.loc	39 182 27 is_stmt 1
	movq	_ZN5alloc7raw_vec17capacity_overflow17h9726d2d17ed40f62E@GOTPCREL(%rip), %rax
	callq	*%rax
.Ltmp707:
	jmp	.LBB183_15
	.cfi_def_cfa_offset 8
	.loc	39 184 32
	ud2
.LBB183_22:
	.cfi_def_cfa_offset 320
	.loc	39 185 60
	movq	168(%rsp), %rsi
	movq	176(%rsp), %rdx
.Ltmp710:
	leaq	136(%rsp), %rdi
	.loc	39 185 45 is_stmt 0
	callq	_ZN63_$LT$alloc..alloc..Global$u20$as$u20$core..alloc..Allocator$GT$8allocate17h46bdb81d1d7f1094E
.Ltmp711:
	movq	%rdx, 48(%rsp)
	movq	%rax, 56(%rsp)
	jmp	.LBB183_26
.LBB183_23:
	.loc	39 186 60 is_stmt 1
	movq	168(%rsp), %rsi
	movq	176(%rsp), %rdx
.Ltmp708:
	leaq	136(%rsp), %rdi
	.loc	39 186 38 is_stmt 0
	callq	_ZN63_$LT$alloc..alloc..Global$u20$as$u20$core..alloc..Allocator$GT$15allocate_zeroed17hed71a326e6c76579E
.Ltmp709:
	movq	%rdx, 32(%rsp)
	movq	%rax, 40(%rsp)
	jmp	.LBB183_24
.LBB183_24:
	.loc	39 0 38
	movq	32(%rsp), %rax
	movq	40(%rsp), %rcx
	.loc	39 186 38
	movq	%rcx, 216(%rsp)
	movq	%rax, 224(%rsp)
.LBB183_25:
.Ltmp730:
	.loc	39 188 29 is_stmt 1
	movq	216(%rsp), %rax
	testq	%rax, %rax
	sete	%al
	movzbl	%al, %eax
	.loc	39 188 23 is_stmt 0
	jne	.LBB183_28
	jmp	.LBB183_38
.LBB183_38:
	jmp	.LBB183_29
.Ltmp731:
.LBB183_26:
	.loc	39 0 23
	movq	48(%rsp), %rax
	movq	56(%rsp), %rcx
	.loc	39 185 45 is_stmt 1
	movq	%rcx, 216(%rsp)
	movq	%rax, 224(%rsp)
	.loc	39 185 66 is_stmt 0
	jmp	.LBB183_25
	.cfi_def_cfa_offset 8
.Ltmp732:
	.loc	39 188 29 is_stmt 1
	ud2
.LBB183_28:
	.cfi_def_cfa_offset 320
	.loc	39 189 20
	movq	216(%rsp), %rdi
	movq	224(%rsp), %rsi
	movq	%rdi, 280(%rsp)
	movq	%rsi, 288(%rsp)
.Ltmp733:
	.loc	39 189 28 is_stmt 0
	movq	%rdi, 296(%rsp)
	movq	%rsi, 304(%rsp)
.Ltmp734:
.Ltmp714:
	.loc	39 197 53 is_stmt 1
	callq	_ZN4core3ptr8non_null16NonNull$LT$T$GT$4cast17h8cbdf65d67814f73E
.Ltmp715:
	movq	%rax, 24(%rsp)
	jmp	.LBB183_30
.Ltmp735:
.LBB183_29:
	.loc	39 190 46
	movq	168(%rsp), %rdi
	movq	176(%rsp), %rsi
.Ltmp712:
	.loc	39 190 27 is_stmt 0
	movq	_ZN5alloc5alloc18handle_alloc_error17hdcc80e546b4a46a8E@GOTPCREL(%rip), %rax
	callq	*%rax
.Ltmp713:
	jmp	.LBB183_15
.LBB183_30:
.Ltmp716:
	.loc	39 0 27
	movq	24(%rsp), %rdi
.Ltmp736:
	.loc	39 197 53 is_stmt 1
	callq	_ZN4core3ptr8non_null16NonNull$LT$T$GT$6as_ptr17h808fdef249a03bf0E
.Ltmp717:
	movq	%rax, 16(%rsp)
	jmp	.LBB183_31
.LBB183_31:
.Ltmp718:
	.loc	39 0 53 is_stmt 0
	movq	16(%rsp), %rdi
	.loc	39 197 31
	callq	_ZN4core3ptr6unique15Unique$LT$T$GT$13new_unchecked17hebc34a14c9dbee9dE
.Ltmp719:
	movq	%rax, 8(%rsp)
	jmp	.LBB183_32
.LBB183_32:
	.loc	39 0 31
	movq	120(%rsp), %rax
	movq	8(%rsp), %rcx
	.loc	39 199 17 is_stmt 1
	movb	$0, 239(%rsp)
	.loc	39 196 13
	movq	%rcx, 144(%rsp)
	movq	%rax, 152(%rsp)
.Ltmp737:
	.loc	39 171 9
	jmp	.LBB183_10
.LBB183_33:
	.loc	39 169 5
	movq	248(%rsp), %rdi
	callq	_Unwind_Resume@PLT
	ud2
.LBB183_34:
	.loc	39 202 5
	jmp	.LBB183_33
.Ltmp738:
.Lfunc_end183:
	.size	_ZN5alloc7raw_vec19RawVec$LT$T$C$A$GT$11allocate_in17h35be775f3f99f7ecE, .Lfunc_end183-_ZN5alloc7raw_vec19RawVec$LT$T$C$A$GT$11allocate_in17h35be775f3f99f7ecE
	.cfi_endproc
	.section	".gcc_except_table._ZN5alloc7raw_vec19RawVec$LT$T$C$A$GT$11allocate_in17h35be775f3f99f7ecE","a",@progbits
	.p2align	2
GCC_except_table183:
.Lexception15:
	.byte	255
	.byte	255
	.byte	1
	.uleb128 .Lcst_end15-.Lcst_begin15
.Lcst_begin15:
	.uleb128 .Ltmp698-.Lfunc_begin183
	.uleb128 .Ltmp719-.Ltmp698
	.uleb128 .Ltmp722-.Lfunc_begin183
	.byte	0
	.uleb128 .Ltmp719-.Lfunc_begin183
	.uleb128 .Lfunc_end183-.Ltmp719
	.byte	0
	.byte	0
.Lcst_end15:
	.p2align	2

	.section	".text._ZN5alloc7raw_vec19RawVec$LT$T$C$A$GT$13needs_to_grow17hf9cd0e0d7afb1b24E","ax",@progbits
	.p2align	4, 0x90
	.type	_ZN5alloc7raw_vec19RawVec$LT$T$C$A$GT$13needs_to_grow17hf9cd0e0d7afb1b24E,@function
_ZN5alloc7raw_vec19RawVec$LT$T$C$A$GT$13needs_to_grow17hf9cd0e0d7afb1b24E:
.Lfunc_begin184:
	.loc	39 360 0
	.cfi_startproc
	subq	$88, %rsp
	.cfi_def_cfa_offset 96
	movq	%rsi, 8(%rsp)
	movq	%rdx, 16(%rsp)
	movq	%rdi, 32(%rsp)
	movq	%rsi, 40(%rsp)
	movq	%rdx, 48(%rsp)
	movq	%rdi, 80(%rsp)
.Ltmp739:
	.loc	39 232 59 prologue_end
	movq	8(%rdi), %rax
	movq	%rax, 72(%rsp)
	.loc	39 233 6
	movq	72(%rsp), %rax
	movq	%rax, 24(%rsp)
.Ltmp740:
	.loc	39 0 6 is_stmt 0
	movq	8(%rsp), %rcx
	movq	24(%rsp), %rax
	movq	%rax, 56(%rsp)
	movq	%rcx, 64(%rsp)
.Ltmp741:
	.loc	17 1226 13 is_stmt 1
	subq	%rcx, %rax
	movq	%rax, (%rsp)
.Ltmp742:
	.loc	17 0 13 is_stmt 0
	movq	16(%rsp), %rax
	movq	(%rsp), %rcx
	.loc	39 361 9 is_stmt 1
	cmpq	%rcx, %rax
	seta	%al
	.loc	39 362 6
	andb	$1, %al
	movzbl	%al, %eax
	addq	$88, %rsp
	.cfi_def_cfa_offset 8
	retq
.Ltmp743:
.Lfunc_end184:
	.size	_ZN5alloc7raw_vec19RawVec$LT$T$C$A$GT$13needs_to_grow17hf9cd0e0d7afb1b24E, .Lfunc_end184-_ZN5alloc7raw_vec19RawVec$LT$T$C$A$GT$13needs_to_grow17hf9cd0e0d7afb1b24E
	.cfi_endproc

	.section	".text._ZN5alloc7raw_vec19RawVec$LT$T$C$A$GT$14current_memory17h1fc5edf10f5a94deE","ax",@progbits
	.p2align	4, 0x90
	.type	_ZN5alloc7raw_vec19RawVec$LT$T$C$A$GT$14current_memory17h1fc5edf10f5a94deE,@function
_ZN5alloc7raw_vec19RawVec$LT$T$C$A$GT$14current_memory17h1fc5edf10f5a94deE:
.Lfunc_begin185:
	.loc	39 240 0
	.cfi_startproc
	subq	$136, %rsp
	.cfi_def_cfa_offset 144
	movq	%rsi, 56(%rsp)
	movq	%rdi, 64(%rsp)
	movq	%rdi, 72(%rsp)
	movq	%rsi, 112(%rsp)
.Ltmp744:
	.loc	39 241 12 prologue_end
	movl	$1, %eax
	cmpq	$0, %rax
	jne	.LBB185_3
	movb	$1, 87(%rsp)
	jmp	.LBB185_4
.LBB185_3:
	.loc	39 0 12 is_stmt 0
	movq	56(%rsp), %rax
	.loc	39 241 40
	cmpq	$0, 8(%rax)
	sete	%al
	.loc	39 241 12
	andb	$1, %al
	movb	%al, 87(%rsp)
.LBB185_4:
	testb	$1, 87(%rsp)
	jne	.LBB185_6
	.loc	39 0 12
	movq	56(%rsp), %rax
	.loc	39 247 49 is_stmt 1
	movq	8(%rax), %rdi
	.loc	39 247 30 is_stmt 0
	callq	_ZN4core5alloc6layout6Layout5array17h14502127a1859509E
	movq	%rax, 40(%rsp)
	movq	%rdx, 48(%rsp)
	jmp	.LBB185_8
.LBB185_6:
	.loc	39 0 30
	movq	64(%rsp), %rax
	.loc	39 242 13 is_stmt 1
	movq	$0, 16(%rax)
.LBB185_7:
	.loc	39 0 13 is_stmt 0
	movq	72(%rsp), %rax
	.loc	39 251 6 is_stmt 1
	addq	$136, %rsp
	.cfi_def_cfa_offset 8
	retq
.LBB185_8:
	.cfi_def_cfa_offset 144
	.loc	39 0 6 is_stmt 0
	movq	48(%rsp), %rsi
	movq	40(%rsp), %rdi
	.loc	39 247 30 is_stmt 1
	leaq	.L__unnamed_12(%rip), %rdx
	callq	_ZN4core6result19Result$LT$T$C$E$GT$16unwrap_unchecked17ha4279ce2690fb261E
	movq	%rax, 24(%rsp)
	movq	%rdx, 32(%rsp)
	movq	%rax, 120(%rsp)
	movq	%rdx, 128(%rsp)
	.loc	39 0 30 is_stmt 0
	movq	56(%rsp), %rax
.Ltmp745:
	.loc	39 248 23 is_stmt 1
	movq	(%rax), %rdi
	callq	_ZN4core3ptr6unique15Unique$LT$T$GT$4cast17h00c5c7b22d20d67dE
	movq	%rax, 16(%rsp)
	.loc	39 0 23 is_stmt 0
	movq	16(%rsp), %rdi
	.loc	39 248 23
	callq	_ZN50_$LT$T$u20$as$u20$core..convert..Into$LT$U$GT$$GT$4into17hc3565ee45a3c9d56E
	movq	%rax, 8(%rsp)
	.loc	39 0 23
	movq	64(%rsp), %rax
	movq	32(%rsp), %rcx
	movq	24(%rsp), %rdx
	movq	8(%rsp), %rsi
	.loc	39 248 22
	movq	%rsi, 88(%rsp)
	movq	%rdx, 96(%rsp)
	movq	%rcx, 104(%rsp)
	.loc	39 248 17
	movq	88(%rsp), %rcx
	movq	%rcx, (%rax)
	movq	96(%rsp), %rcx
	movq	%rcx, 8(%rax)
	movq	104(%rsp), %rcx
	movq	%rcx, 16(%rax)
.Ltmp746:
	.loc	39 241 9 is_stmt 1
	jmp	.LBB185_7
.Ltmp747:
.Lfunc_end185:
	.size	_ZN5alloc7raw_vec19RawVec$LT$T$C$A$GT$14current_memory17h1fc5edf10f5a94deE, .Lfunc_end185-_ZN5alloc7raw_vec19RawVec$LT$T$C$A$GT$14current_memory17h1fc5edf10f5a94deE
	.cfi_endproc

	.section	".text._ZN5alloc7raw_vec19RawVec$LT$T$C$A$GT$14current_memory17he3d61d9c100e1b31E","ax",@progbits
	.p2align	4, 0x90
	.type	_ZN5alloc7raw_vec19RawVec$LT$T$C$A$GT$14current_memory17he3d61d9c100e1b31E,@function
_ZN5alloc7raw_vec19RawVec$LT$T$C$A$GT$14current_memory17he3d61d9c100e1b31E:
.Lfunc_begin186:
	.loc	39 240 0
	.cfi_startproc
	subq	$136, %rsp
	.cfi_def_cfa_offset 144
	movq	%rsi, 56(%rsp)
	movq	%rdi, 64(%rsp)
	movq	%rdi, 72(%rsp)
	movq	%rsi, 112(%rsp)
.Ltmp748:
	.loc	39 241 12 prologue_end
	movl	$8, %eax
	cmpq	$0, %rax
	jne	.LBB186_3
	movb	$1, 87(%rsp)
	jmp	.LBB186_4
.LBB186_3:
	.loc	39 0 12 is_stmt 0
	movq	56(%rsp), %rax
	.loc	39 241 40
	cmpq	$0, 8(%rax)
	sete	%al
	.loc	39 241 12
	andb	$1, %al
	movb	%al, 87(%rsp)
.LBB186_4:
	testb	$1, 87(%rsp)
	jne	.LBB186_6
	.loc	39 0 12
	movq	56(%rsp), %rax
	.loc	39 247 49 is_stmt 1
	movq	8(%rax), %rdi
	.loc	39 247 30 is_stmt 0
	callq	_ZN4core5alloc6layout6Layout5array17h1183ea9d95bb588fE
	movq	%rax, 40(%rsp)
	movq	%rdx, 48(%rsp)
	jmp	.LBB186_8
.LBB186_6:
	.loc	39 0 30
	movq	64(%rsp), %rax
	.loc	39 242 13 is_stmt 1
	movq	$0, 16(%rax)
.LBB186_7:
	.loc	39 0 13 is_stmt 0
	movq	72(%rsp), %rax
	.loc	39 251 6 is_stmt 1
	addq	$136, %rsp
	.cfi_def_cfa_offset 8
	retq
.LBB186_8:
	.cfi_def_cfa_offset 144
	.loc	39 0 6 is_stmt 0
	movq	48(%rsp), %rsi
	movq	40(%rsp), %rdi
	.loc	39 247 30 is_stmt 1
	leaq	.L__unnamed_12(%rip), %rdx
	callq	_ZN4core6result19Result$LT$T$C$E$GT$16unwrap_unchecked17ha4279ce2690fb261E
	movq	%rax, 24(%rsp)
	movq	%rdx, 32(%rsp)
	movq	%rax, 120(%rsp)
	movq	%rdx, 128(%rsp)
	.loc	39 0 30 is_stmt 0
	movq	56(%rsp), %rax
.Ltmp749:
	.loc	39 248 23 is_stmt 1
	movq	(%rax), %rdi
	callq	_ZN4core3ptr6unique15Unique$LT$T$GT$4cast17haf422f699b7b3306E
	movq	%rax, 16(%rsp)
	.loc	39 0 23 is_stmt 0
	movq	16(%rsp), %rdi
	.loc	39 248 23
	callq	_ZN50_$LT$T$u20$as$u20$core..convert..Into$LT$U$GT$$GT$4into17hc3565ee45a3c9d56E
	movq	%rax, 8(%rsp)
	.loc	39 0 23
	movq	64(%rsp), %rax
	movq	32(%rsp), %rcx
	movq	24(%rsp), %rdx
	movq	8(%rsp), %rsi
	.loc	39 248 22
	movq	%rsi, 88(%rsp)
	movq	%rdx, 96(%rsp)
	movq	%rcx, 104(%rsp)
	.loc	39 248 17
	movq	88(%rsp), %rcx
	movq	%rcx, (%rax)
	movq	96(%rsp), %rcx
	movq	%rcx, 8(%rax)
	movq	104(%rsp), %rcx
	movq	%rcx, 16(%rax)
.Ltmp750:
	.loc	39 241 9 is_stmt 1
	jmp	.LBB186_7
.Ltmp751:
.Lfunc_end186:
	.size	_ZN5alloc7raw_vec19RawVec$LT$T$C$A$GT$14current_memory17he3d61d9c100e1b31E, .Lfunc_end186-_ZN5alloc7raw_vec19RawVec$LT$T$C$A$GT$14current_memory17he3d61d9c100e1b31E
	.cfi_endproc

	.section	".text._ZN5alloc7raw_vec19RawVec$LT$T$C$A$GT$14grow_amortized17h79951075e8444961E","ax",@progbits
	.p2align	4, 0x90
	.type	_ZN5alloc7raw_vec19RawVec$LT$T$C$A$GT$14grow_amortized17h79951075e8444961E,@function
_ZN5alloc7raw_vec19RawVec$LT$T$C$A$GT$14grow_amortized17h79951075e8444961E:
.Lfunc_begin187:
	.loc	39 379 0
	.cfi_startproc
	subq	$392, %rsp
	.cfi_def_cfa_offset 400
	movq	%rdi, 64(%rsp)
	movq	%rsi, 72(%rsp)
	movq	%rdx, 80(%rsp)
	movq	%rdi, 256(%rsp)
	movq	%rsi, 264(%rsp)
	movq	%rdx, 272(%rsp)
.Ltmp752:
	.loc	39 383 12 prologue_end
	movl	$1, %eax
	cmpq	$0, %rax
	jne	.LBB187_3
	.loc	39 386 24
	movq	$0, 112(%rsp)
	movq	104(%rsp), %rdi
	movq	112(%rsp), %rsi
	callq	_ZN50_$LT$T$u20$as$u20$core..convert..Into$LT$U$GT$$GT$4into17hef3fc054d3f26766E
	movq	%rax, 48(%rsp)
	movq	%rdx, 56(%rsp)
	jmp	.LBB187_24
.LBB187_3:
	.loc	39 0 24 is_stmt 0
	movq	80(%rsp), %rsi
	movq	72(%rsp), %rdi
	.loc	39 390 28 is_stmt 1
	callq	_ZN4core3num23_$LT$impl$u20$usize$GT$11checked_add17h40ee73922c8c5021E
	movq	%rax, 32(%rsp)
	movq	%rdx, 40(%rsp)
	.loc	39 0 28 is_stmt 0
	movq	40(%rsp), %rdx
	movq	32(%rsp), %rsi
	.loc	39 390 62
	movq	$0, 176(%rsp)
	.loc	39 390 28
	movq	168(%rsp), %rcx
	movq	176(%rsp), %r8
	leaq	144(%rsp), %rdi
	callq	_ZN4core6option15Option$LT$T$GT$5ok_or17hf2d06809563290c0E
	leaq	120(%rsp), %rdi
	leaq	144(%rsp), %rsi
	callq	_ZN79_$LT$core..result..Result$LT$T$C$E$GT$$u20$as$u20$core..ops..try_trait..Try$GT$6branch17hcb36f690ba96b09cE
	movq	120(%rsp), %rax
	testq	%rax, %rax
	je	.LBB187_8
	jmp	.LBB187_25
.LBB187_25:
	jmp	.LBB187_9
	.cfi_def_cfa_offset 8
	ud2
.LBB187_8:
	.cfi_def_cfa_offset 400
	.loc	39 0 28
	movq	64(%rsp), %rax
	.loc	39 390 28
	movq	128(%rsp), %rsi
	movq	%rsi, 296(%rsp)
.Ltmp753:
	.loc	39 390 28
	movq	%rsi, 304(%rsp)
.Ltmp754:
	.loc	39 394 28 is_stmt 1
	movq	8(%rax), %rdi
	shlq	$1, %rdi
	.loc	39 394 19 is_stmt 0
	callq	_ZN4core3cmp3max17hf1fd6aee7581c728E
	movq	%rax, 24(%rsp)
	movq	%rax, 312(%rsp)
	jmp	.LBB187_12
.Ltmp755:
.LBB187_9:
	.loc	39 390 79 is_stmt 1
	movq	128(%rsp), %rdi
	movq	136(%rsp), %rsi
	movq	%rdi, 280(%rsp)
	movq	%rsi, 288(%rsp)
.Ltmp756:
	.loc	39 390 28 is_stmt 0
	leaq	.L__unnamed_13(%rip), %rdx
	callq	_ZN153_$LT$core..result..Result$LT$T$C$F$GT$$u20$as$u20$core..ops..try_trait..FromResidual$LT$core..result..Result$LT$core..convert..Infallible$C$E$GT$$GT$$GT$13from_residual17h2870e7cb317aaa59E
	movq	%rdx, 96(%rsp)
	movq	%rax, 88(%rsp)
.Ltmp757:
	.loc	41 1 1 is_stmt 1
	jmp	.LBB187_11
.LBB187_11:
	jmp	.LBB187_22
.LBB187_12:
	.loc	41 0 1 is_stmt 0
	movq	24(%rsp), %rsi
.Ltmp758:
	.loc	39 395 19 is_stmt 1
	movl	$8, %edi
	callq	_ZN4core3cmp3max17hf1fd6aee7581c728E
	movq	%rax, 16(%rsp)
	movq	%rax, 320(%rsp)
	.loc	39 0 19 is_stmt 0
	movq	16(%rsp), %rdi
.Ltmp759:
	.loc	39 397 26 is_stmt 1
	callq	_ZN4core5alloc6layout6Layout5array17h14502127a1859509E
	movq	%rax, (%rsp)
	movq	%rdx, 8(%rsp)
	movq	%rax, 328(%rsp)
	movq	%rdx, 336(%rsp)
	.loc	39 0 26 is_stmt 0
	movq	64(%rsp), %rsi
.Ltmp760:
	.loc	39 400 43 is_stmt 1
	leaq	232(%rsp), %rdi
	callq	_ZN5alloc7raw_vec19RawVec$LT$T$C$A$GT$14current_memory17h1fc5edf10f5a94deE
	.loc	39 0 43 is_stmt 0
	movq	8(%rsp), %rdx
	movq	(%rsp), %rsi
	movq	64(%rsp), %r8
	.loc	39 400 19
	leaq	208(%rsp), %rdi
	leaq	232(%rsp), %rcx
	callq	_ZN5alloc7raw_vec11finish_grow17h5219e0b28d61cfc1E
	leaq	184(%rsp), %rdi
	leaq	208(%rsp), %rsi
	callq	_ZN79_$LT$core..result..Result$LT$T$C$E$GT$$u20$as$u20$core..ops..try_trait..Try$GT$6branch17h5f463a6682d68763E
	movq	184(%rsp), %rax
	testq	%rax, %rax
	je	.LBB187_19
	jmp	.LBB187_26
.LBB187_26:
	jmp	.LBB187_20
	.cfi_def_cfa_offset 8
	ud2
.LBB187_19:
	.cfi_def_cfa_offset 400
	.loc	39 0 19
	movq	16(%rsp), %rcx
	movq	64(%rsp), %rdi
	.loc	39 400 19
	movq	192(%rsp), %rsi
	movq	200(%rsp), %rdx
	movq	%rsi, 360(%rsp)
	movq	%rdx, 368(%rsp)
.Ltmp761:
	.loc	39 400 19
	movq	%rsi, 376(%rsp)
	movq	%rdx, 384(%rsp)
.Ltmp762:
	.loc	39 401 9 is_stmt 1
	callq	_ZN5alloc7raw_vec19RawVec$LT$T$C$A$GT$15set_ptr_and_cap17h62e77c69f380e1eaE
	jmp	.LBB187_23
.Ltmp763:
.LBB187_20:
	.loc	39 400 82
	movq	192(%rsp), %rdi
	movq	200(%rsp), %rsi
	movq	%rdi, 344(%rsp)
	movq	%rsi, 352(%rsp)
.Ltmp764:
	.loc	39 400 19 is_stmt 0
	leaq	.L__unnamed_14(%rip), %rdx
	callq	_ZN153_$LT$core..result..Result$LT$T$C$F$GT$$u20$as$u20$core..ops..try_trait..FromResidual$LT$core..result..Result$LT$core..convert..Infallible$C$E$GT$$GT$$GT$13from_residual17h4e89803298d69aa2E
	movq	%rdx, 96(%rsp)
	movq	%rax, 88(%rsp)
.Ltmp765:
	.loc	41 1 1 is_stmt 1
	jmp	.LBB187_11
.Ltmp766:
.LBB187_22:
	.loc	39 403 6
	movq	88(%rsp), %rax
	movq	96(%rsp), %rdx
	addq	$392, %rsp
	.cfi_def_cfa_offset 8
	retq
.LBB187_23:
	.cfi_def_cfa_offset 400
.Ltmp767:
	.loc	39 402 9
	movabsq	$-9223372036854775807, %rax
	movq	%rax, 96(%rsp)
.Ltmp768:
	.loc	39 403 6
	jmp	.LBB187_22
